(dp1
S'hyper2hypo'
p2
ccollections
defaultdict
p3
(c__builtin__
dict
p4
tRp5
Voncology
p6
(dp7
Vepidemiology
p8
I4
sVpathology
p9
I4
sVbiology
p10
I4
ssVnetworking
p11
(dp12
Vcommunication
p13
I2
sVengineering
p14
I2
ssVinternational relations
p15
(dp16
Vpolitics
p17
I2
ssVsocial science
p18
(dp19
Vcartography
p20
I4
sVethnography
p21
I2
sVcommunication
p22
I4
sVurban study
p23
I2
sVecology
p24
I6
sVstatistic
p25
I6
sVrural sociology
p26
I2
sVagronomy
p27
I2
sVgeography
p28
I14
sVethic
p29
I6
sVlinguistics
p30
I6
sVstatistics
p31
I2
sVperformance study
p32
I2
sVpsychology
p33
I68
sVpublic administration
p34
I4
sVhumanities
p35
I4
sVarcheology
p36
I6
sVgeology
p37
I4
sVinternational relation
p38
I2
sVmedicine
p39
I6
sVsocial psychology
p40
I2
sVcriminology
p41
I2
sVbiology
p42
I6
sVfinance
p43
I4
sValgebra
p44
I2
sVpublic health
p45
I2
sVphilosophy
p46
I20
sVplant breeding
p47
I2
sVanthropology
p48
I54
sVchemistry
p49
I2
sVsociology
p50
I78
sVpolitical science
p51
I46
sVmathematics
p52
I4
sVoceanography
p53
I2
sVphysic
p54
I4
sVeconomic history
p55
I2
sVmeteorology
p56
I4
sVethnology
p57
I2
sVclimatology
p58
I2
sVepidemiology
p59
I4
sVscience
p60
I4
sVeconomics
p61
I92
sVanalysis
p62
I4
sVtheology
p63
I4
sVpolitics
p64
I10
sVurban studies
p65
I2
sVdemography
p66
I16
sVpsychiatry
p67
I6
sVbiotechnology
p68
I2
sVcultural anthropology
p69
I4
sVarchaeology
p70
I2
sVhistory
p71
I44
ssVcomputational linguistics
p72
(dp73
Vpragmatics
p74
I2
sVsemantics
p75
I4
sVpragmatic
p76
I2
ssVtaxonomy
p77
(dp78
Vbotany
p79
I4
ssVdynamic
p80
(dp81
Vcommunication
p82
I2
sVmechanic
p83
I2
sVchemistry
p84
I2
sVanalysis
p85
I2
sVprobability
p86
I2
ssVmicroscopic anatomy
p87
(dp88
Vcytology
p89
I4
sVhistology
p90
I4
ssVmedical science
p91
(dp92
Vethic
p93
I2
sVsocial science
p94
I4
sVbiochemistry
p95
I4
sVorthopedics
p96
I8
sVbiomaterials
p97
I4
sVdentistry
p98
I8
sVmedicine
p99
I4
sVethics
p100
I2
sVphysiology
p101
I4
ssVspace science
p102
(dp103
g56
I4
sg37
I4
ssVobstetrics
p104
(dp105
Vgynecology
p106
I4
ssVmorphology
p107
(dp108
Vhistory
p109
I4
ssVphysical science
p110
(dp111
Vbotany
p112
I2
sVbiology
p113
I6
sVastronomy
p114
I18
sVgeology
p115
I12
sVbiochemistry
p116
I2
sVscience
p117
I6
sVmeteorology
p118
I2
sVengineering
p119
I4
sVcosmology
p120
I2
sVmagnetism
p121
I4
sVcomputer science
p122
I2
sVmathematics
p123
I8
sVelectronics
p124
I2
sVchemistry
p125
I40
sVphysics
p126
I12
sVmaterial science
p127
I2
sVphysic
p128
I46
ssVcomputational biology
p129
(dp130
Vanalysis
p131
I4
ssVnetworks
p132
(dp133
g13
I2
sVchemistry
p134
I2
sg126
I2
ssVnetwork
p135
(dp136
Vcommunication
p137
I4
sVengineering
p138
I2
sVchemistry
p139
I2
sVphysic
p140
I2
ssVgeography
p141
(dp142
Vethic
p143
I2
sVgenomics
p144
I4
sVclimate
p145
I4
sg20
I4
sg13
I4
sg100
I2
ssVethic
p146
(dp147
Vgenetic engineering
p148
I2
sVpsychology
p149
I2
sVphilosophy
p150
I2
sVanalysis
p151
I4
sVreligion
p152
I2
sVpolitics
p153
I2
sVhistory
p154
I2
ssVlinguistics
p155
(dp156
Vanthropology
p157
I4
sVpragmatic
p158
I8
sVlanguage
p159
I20
sVpsycholinguistics
p160
I12
sVphonetics
p161
I12
sVbilingualism
p162
I4
sg131
I4
sVsyntax
p163
I12
sVphonology
p164
I12
sVhistorical linguistics
p165
I4
sg75
I12
sVmultilingualism
p166
I4
sVmorphology
p167
I12
sVsociolinguistics
p168
I16
sg9
I4
sg109
I4
sg74
I8
sVapplied linguistics
p169
I2
sVapply linguistics
p170
I2
ssVtherapeutics
p171
(dp172
Vclinical nutrition
p173
I2
sVnutrition
p174
I2
ssVbiostatistics
p175
(dp176
g10
I4
ssVcognitive neuroscience
p177
(dp178
Vneuroscience
p179
I4
ssVionising radiation
p180
(dp181
Vmetrology
p182
I2
ssVclassical mechanics
p183
(dp184
Vkinematics
p185
I2
ssVthermodynamics
p186
(dp187
Vstatistical mechanics
p188
I2
sg131
I8
sVstatistical mechanic
p189
I2
ssVquantum physics
p190
(dp191
g188
I2
sVatom
p192
I4
sValgebra
p193
I2
sVquantum mechanics
p194
I2
ssVworld history
p195
(dp196
g17
I4
sVscience
p197
I4
sVmusic
p198
I4
sVtheatre
p199
I4
sVreligion
p200
I4
ssVbiomedical
p201
(dp202
Vethic
p203
I2
sg10
I4
sVpsychology
p204
I4
sg95
I4
sg100
I2
sg134
I4
ssVinternational relation
p205
(dp206
Vpolitics
p207
I2
ssVclinical psychology
p208
(dp209
Vcomputational linguistics
p210
I4
ssVhealth psychology
p211
(dp212
g99
I4
sg98
I4
ssVphysical sciences
p213
(dp214
Vmaterials science
p215
I2
sg10
I6
sg56
I2
sg79
I2
sg95
I2
sg197
I6
sg37
I12
sVastronomy
p216
I18
sVcosmology
p217
I2
sg14
I4
sVcomputer science
p218
I2
sVmathematics
p219
I8
sVelectronics
p220
I2
sg134
I20
sg126
I34
ssVperformance studies
p221
(dp222
Vethnomusicology
p223
I2
sVlinguistics
p224
I2
sVmusicology
p225
I2
sg199
I2
sg197
I2
sg157
I2
sg198
I2
sVcomposition
p226
I2
ssVphysical chemistry
p227
(dp228
Vphotochemistry
p229
I4
sVgroup theory
p230
I4
sVmechanics
p231
I4
sVcosmochemistry
p232
I4
sVpolymer chemistry
p233
I4
sVmaterial chemistry
p234
I2
sVthermodynamics
p235
I8
sg188
I4
sVelectrochemistry
p236
I12
sg194
I2
sVstatistical mechanic
p237
I4
sVgeochemistry
p238
I4
sVmechanic
p239
I4
sVmaterials chemistry
p240
I2
sg134
I4
sVquantum mechanic
p241
I2
ssVengineering science
p242
(dp243
g231
I4
sVstatics
p244
I2
sg235
I4
sVstatic
p245
I2
sVmechanic
p246
I4
sVfluid mechanic
p247
I2
sVfluid mechanics
p248
I2
ssVmaterials science
p249
(dp250
Vphotonics
p251
I2
sg197
I2
sg236
I2
sVmetallurgy
p252
I4
sg97
I2
sg220
I2
sg126
I2
ssVplant genetics
p253
(dp254
Vgenetic engineering
p255
I4
ssVfinance
p256
(dp257
Vpartial differential equation
p258
I2
sVpartial differential equations
p259
I2
sVforestry
p260
I4
sVmatrix algebra
p261
I4
sg193
I4
ssVpharmacology
p262
(dp263
Vpharmacokinetics
p264
I20
ssVgeology
p265
(dp266
Vclimatology
p267
I4
sVoceanography
p268
I4
sg238
I4
sVstratigraphy
p269
I8
sVmineralogy
p270
I4
ssVapplied sciences
p271
(dp272
g10
I2
sVgeodesy
p273
I4
sVapplied sciences
p274
I1
sg197
I2
sg131
I2
sg14
I6
sg218
I2
sg99
I2
sVphysical science
p275
I2
sg220
I2
sg134
I8
sVindustrial chemistry
p276
I4
ssVpublic health
p277
(dp278
g174
I4
sg145
I4
sVprobability
p279
I4
sg8
I4
sVhygiene
p280
I4
sg99
I4
sVenvironmental health
p281
I4
ssVeugenics
p282
(dp283
g219
I4
sg10
I4
sVsociology
p284
I4
ssVmedicine
p285
(dp286
Voncology
p287
I4
sVsocial science
p288
I2
sg174
I4
sg14
I4
sVapply psychology
p289
I2
sVergonomics
p290
I4
sVobstetrics
p291
I12
sVsurgery
p292
I28
sVpsychotherapy
p293
I8
sVethic
p294
I4
sg144
I4
sVmolecular biology
p295
I4
sg204
I12
sVmicrobiology
p296
I8
sVpharmacy
p297
I4
sg252
I4
sVveterinary medicine
p298
I4
sg10
I4
sVpediatrics
p299
I4
sVpharmacology
p300
I8
sVcardiology
p301
I12
sVapplied psychology
p302
I2
sVphilosophy
p303
I4
sVstem cell
p304
I4
sVepistemology
p305
I4
sVanatomy
p306
I4
sg8
I8
sVpsychiatry
p307
I24
sg98
I12
sg100
I4
sVsocial sciences
p308
I2
sVimmunology
p309
I8
sVvirology
p310
I8
sg131
I4
sVhorticulture
p311
I4
sVenvironmental chemistry
p312
I4
sVneurology
p313
I12
sVnatural history
p314
I4
sVtoxicology
p315
I8
sg134
I4
ssVatmospheric sciences
p316
(dp317
Vvulcanology
p318
I2
sg56
I2
sg268
I2
sVpaleoecology
p319
I2
ssVphilosophy of language
p320
(dp321
g305
I4
sVmetaphysics
p322
I4
sVphilosophy of mind
p323
I4
ssVcondensed matter physics
p324
(dp325
g126
I6
sVcondensed matter physics
p326
I1
ssVanalytic geometry
p327
(dp328
Vcalculus
p329
I4
ssVgrammar
p330
(dp331
Vpragmatic
p332
I2
sg161
I8
sg163
I20
sg164
I16
sg167
I12
sg74
I2
sg75
I4
ssVbehavioral neurobiology
p333
(dp334
g10
I4
ssVset theory
p335
(dp336
g219
I4
sg109
I4
ssVclassical mechanic
p337
(dp338
Vkinematics
p339
I2
ssVphilosophy of mind
p340
(dp341
g303
I4
ssVphonology
p342
(dp343
Vgrammar
p344
I4
ssVcivil engineering
p345
(dp346
Vmechanics of materials
p347
I2
sg14
I4
sVmechanic of material
p348
I2
ssVcomputer engineering
p349
(dp350
Vsignal processing
p351
I4
sVcomputer architecture
p352
I4
sg13
I4
sg220
I4
sVcompilers
p353
I2
sVartificial intelligence
p354
I4
sVcompiler
p355
I2
ssVsurgery
p356
(dp357
g306
I4
sVrobotics
p358
I4
sg313
I4
sVdental surgery
p359
I4
ssVlinear algebra
p360
(dp361
g131
I4
ssVnatural history
p362
(dp363
g79
I4
sVentomology
p364
I4
sg37
I4
ssVcybernetics
p365
(dp366
g219
I4
sg313
I4
ssVplant biology
p367
(dp368
Vsystematics
p369
I4
sVpaleobotany
p370
I4
sVecology
p371
I4
sg101
I8
sg295
I4
ssVoptics
p372
(dp373
Vcatoptrics
p374
I4
ssVtherapeutic
p375
(dp376
Vclinical nutrition
p377
I2
sVnutrition
p378
I2
ssVnumerical analysis
p379
(dp380
g259
I2
sVarithmetic
p381
I4
sg131
I8
sg279
I4
sVpartial differential equation
p382
I2
ssVecology
p383
(dp384
g145
I4
sg197
I12
sVpublic health
p385
I4
sVdynamic
p386
I2
sg10
I4
sg14
I4
sVlimnology
p387
I4
sVdynamics
p388
I2
sg134
I4
sg126
I4
sg101
I4
sVphysic
p389
I4
ssVminority language
p390
(dp391
g159
I4
ssVmechanical engineering
p392
(dp393
Vmanufacture
p394
I4
sVmanufacturing
p395
I4
ssVneurology
p396
(dp397
Vneuropsychiatry
p398
I4
sVneurophysiology
p399
I4
sg99
I4
sVneurobiology
p400
I4
ssVstatistic
p401
(dp402
Vmemory
p403
I2
sVgenomics
p404
I2
sVnumerical analysis
p405
I2
sVpsychology
p406
I2
sVprobability
p407
I6
sVlinear algebra
p408
I4
sVeconomics
p409
I2
sVanalysis
p410
I4
sVcorrelation
p411
I12
sVhistory
p412
I2
ssVdynamics
p413
(dp414
g231
I2
sg13
I2
sg134
I2
sg131
I2
sg279
I2
ssVsocial sciences
p415
(dp416
g371
I6
sVinternational relations
p417
I2
sVethnography
p418
I2
sg13
I4
sg17
I10
sVagronomy
p419
I2
sVgeography
p420
I10
sg224
I6
sg31
I4
sg268
I2
sg204
I52
sVhumanities
p421
I4
sVarcheology
p422
I6
sg99
I6
sVsocial psychology
p423
I2
sVcriminology
p424
I2
sVperformance studies
p425
I2
sg10
I6
sVfinance
p426
I4
sg193
I2
sg385
I2
sg303
I20
sVplant breeding
p427
I2
sg157
I46
sg134
I2
sg284
I62
sVpolitical science
p428
I42
sg219
I4
sVrural sociology
p429
I2
sg100
I6
sVeconomic history
p430
I2
sVethnology
p431
I2
sg267
I2
sg8
I4
sg197
I4
sVeconomics
p432
I76
sg131
I4
sVtheology
p433
I4
sg66
I4
sg307
I6
sVbiotechnology
p434
I2
sVcultural anthropology
p435
I4
sg126
I4
sVarchaeology
p436
I2
sg109
I40
ssVstructural materials
p437
(dp438
g131
I2
ssVichthyology
p439
(dp440
g10
I4
sVbiosystematics
p441
I4
ssVsociology
p442
(dp443
g429
I4
sg31
I2
sg197
I4
sg432
I4
sg200
I4
sg428
I4
sVstatistic
p444
I2
sg17
I4
sg420
I4
sVrace and ethnicity
p445
I4
sg435
I4
ssVperformance study
p446
(dp447
Vethnomusicology
p448
I2
sVlinguistics
p449
I2
sVmusicology
p450
I2
sVtheatre
p451
I2
sVscience
p452
I2
sVanthropology
p453
I2
sVmusic
p454
I2
sVcomposition
p455
I2
ssVpsychology
p456
(dp457
Vdevelopmental psychology
p458
I4
sg160
I4
sg13
I4
sVproblem solving
p459
I2
sVstatistic
p460
I16
sg17
I4
sVpsychoanalysis
p461
I12
sg424
I8
sg31
I16
sVcognitive neuroscience
p462
I4
sVabnormal psychology
p463
I12
sVmemory
p464
I24
sg99
I4
sg423
I16
sVpersonality
p465
I8
sg303
I4
sg307
I8
sg179
I24
sg159
I12
sg197
I8
sVcognitive psychology
p466
I4
sVphysiological psychology
p467
I4
sVproblem solve
p468
I2
sg131
I8
sVstructuralism
p469
I4
sVbehaviorism
p470
I4
sg109
I8
ssVcognitive psychology
p471
(dp472
g159
I8
sg160
I12
sVproblem solve
p473
I6
sg459
I6
sg464
I24
sg109
I4
ssVarcheology
p474
(dp475
Vtopography
p476
I4
sg131
I4
ssVstatistical theory
p477
(dp478
g131
I4
ssVfluid mechanic
p479
(dp480
Vengineering
p481
I2
sVkinematics
p482
I2
sVoptic
p483
I2
sVhistory
p484
I2
ssVsocial anthropology
p485
(dp486
g418
I4
ssVmicrobiology
p487
(dp488
g298
I4
sg10
I4
sg371
I4
sg309
I4
sVtaxonomy
p489
I4
sVcancer biology
p490
I4
sg14
I4
sVmycology
p491
I16
sVbacteriology
p492
I12
sVparasitology
p493
I8
sg434
I8
sVfood microbiology
p494
I4
sVprotozoology
p495
I8
sg310
I12
sg99
I8
sVgenetics
p496
I4
ssVreligion
p497
(dp498
g79
I4
sg371
I4
sVbehavioral ecology
p499
I4
sVstatistic
p500
I2
sVzoology
p501
I4
sg17
I20
sg461
I4
sVethic
p502
I4
sg31
I2
sg198
I4
sg99
I4
sg219
I4
sg37
I4
sg157
I4
sg284
I4
sVsociobiology
p503
I4
sg100
I4
sg197
I8
sg432
I8
sg433
I12
sg469
I4
sg134
I4
sg109
I12
ssVpolitical sociology
p504
(dp505
g17
I4
ssVsexuality
p506
(dp507
g17
I8
sg13
I4
sg131
I8
sg109
I4
ssVlife science
p508
(dp509
Vecology
p510
I2
sg279
I4
sVendocrinology
p511
I2
sVengineering
p512
I2
sVsurgery
p513
I2
sVgeography
p514
I2
sVveterinary medicine
p515
I2
sVgenomics
p516
I8
sVgenetics
p517
I10
sVbiochemistry
p518
I12
sVpaleontology
p519
I2
sVmicrobiology
p520
I10
sVproteomics
p521
I6
sVmedicine
p522
I10
sVembryology
p523
I2
sg329
I4
sVbiology
p524
I22
sVmolecular biology
p525
I4
sVenvironmental science
p526
I4
sVpublic health
p527
I2
sVplant science
p528
I2
sVchemical engineering
p529
I2
sVbiotechnology
p530
I4
sVneuroscience
p531
I2
sVscience
p532
I10
sVtoxicology
p533
I2
ssVelectronics
p534
(dp535
Vnetwork
p536
I2
sVpneumatics
p537
I4
sVcircuits
p538
I2
sg13
I8
sg14
I4
sVcircuit
p539
I2
sVnetworks
p540
I2
ssVapply science
p541
(dp542
Vbiology
p543
I2
sVgeodesy
p544
I4
sVscience
p545
I2
sVapply science
p546
I1
sVanalysis
p547
I2
sVengineering
p548
I6
sVcomputer science
p549
I2
sVmedicine
p550
I2
sVphysical science
p551
I2
sVelectronics
p552
I2
sVchemistry
p553
I8
sVindustrial chemistry
p554
I4
ssVeconomic theory
p555
(dp556
Vmacroeconomics
p557
I4
sg193
I4
sg432
I28
sg131
I8
sVmicroeconomics
p558
I4
sVbehavioral economics
p559
I8
sVtopology
p560
I4
ssVcontinental philosophy
p561
(dp562
g461
I4
ssVprogramming language
p563
(dp564
Vlanguage
p565
I2
ssVbiology
p566
(dp567
Vbiogeography
p568
I8
sg79
I24
sg287
I4
sg371
I44
sVdevelopmental biology
p569
I4
sVmicroorganism
p570
I4
sg279
I4
sg489
I4
sVdynamic
p571
I4
sVbiomedicine
p572
I4
sg501
I24
sVstatistic
p573
I8
sg167
I12
sg388
I4
sg9
I4
sg144
I4
sVtherapeutics
p574
I2
sg496
I56
sg204
I4
sg95
I20
sVpaleontology
p575
I4
sg296
I16
sVstructural biology
p576
I4
sVinstrumentation
p577
I4
sVendocrinology
p578
I4
sg219
I8
sg174
I4
sg370
I4
sg295
I28
sg193
I4
sg364
I12
sg304
I4
sg306
I4
sg8
I4
sg31
I8
sg179
I12
sg101
I44
sVphysic
p579
I2
sVcell biology
p580
I20
sg134
I12
sg309
I16
sg310
I4
sg369
I16
sVethology
p581
I4
sg13
I4
sg315
I4
sVtherapeutic
p582
I2
sg126
I2
sg109
I4
ssVearth sciences
p583
(dp584
g10
I2
sg268
I2
sg37
I8
sg56
I2
sVgeophysics
p585
I6
sg216
I2
sg126
I4
ssVpediatrics
p586
(dp587
g99
I4
ssVionise radiation
p588
(dp589
Vmetrology
p590
I2
ssVdairy science
p591
(dp592
g95
I4
ssVenvironmental science
p593
(dp594
Vbiology
p595
I6
sVecology
p596
I6
sVhydrology
p597
I2
sVgeology
p598
I4
sVpaleobiology
p599
I2
sVpublic health
p600
I4
sVtoxicology
p601
I4
sVhydrogeology
p602
I4
ssVcondensed matter physic
p603
(dp604
Vcondensed matter physic
p605
I1
sVphysic
p606
I6
ssVanthropology
p607
(dp608
g224
I4
sg431
I4
sg465
I4
sg303
I4
sVphysical anthropology
p609
I8
sVevolutionary ecology
p610
I4
sg217
I4
sg306
I4
sVlinguistic anthropology
p611
I8
sg418
I12
sVcontinental philosophy
p612
I4
sg435
I8
sg436
I16
sg109
I8
ssVbacteriology
p613
(dp614
g8
I4
ssVmagnetism
p615
(dp616
g538
I4
sVoptics
p617
I2
sVcircuit
p618
I4
sVoptic
p619
I2
sVelectrostatics
p620
I4
ssVrobotics
p621
(dp622
g185
I8
ssVplant science
p623
(dp624
g311
I4
sg144
I4
sg371
I4
sg496
I4
sVproteomics
p625
I4
sg369
I4
sg197
I4
ssVapply mathematics
p626
(dp627
Vpartial differential equation
p628
I4
sValgorithm
p629
I2
ssVoceanography
p630
(dp631
g371
I4
sg369
I4
sVaquatic ecology
p632
I4
ssVmanufacturing
p633
(dp634
g220
I2
sg358
I2
sg14
I2
ssVphysiology
p635
(dp636
g399
I4
sg10
I4
sg578
I8
ssVevolutionary ecology
p637
(dp638
g496
I8
ssVorganic chemistry
p639
(dp640
Vspectrometry
p641
I4
ssVclimate
p642
(dp643
g197
I4
sg131
I4
ssVdynamical systems
p644
(dp645
Venzyme
p646
I2
sg395
I2
ssVwomen\u2019s history
p647
(dp648
Vsexuality
p649
I4
ssVlanguage
p650
(dp651
Vpragmatic
p652
I6
sg160
I4
sg13
I4
sg163
I56
sg167
I36
sg224
I16
sVnetworking
p653
I2
sg204
I12
sg400
I8
sVprogramming languages
p654
I2
sg161
I12
sg198
I8
sg218
I4
sg166
I4
sg219
I4
sg226
I4
sg381
I4
sVprogramming language
p655
I2
sg10
I4
sg303
I12
sg157
I4
sg168
I4
sg216
I4
sg74
I6
sg75
I36
sVnetwork
p656
I2
sVlexical semantics
p657
I4
sg344
I64
sValgorithm
p658
I2
sg432
I4
sg131
I8
sg164
I32
sg469
I4
sValgorithms
p659
I2
sg109
I24
ssVoptic
p660
(dp661
Vcatoptrics
p662
I4
ssVeconomics
p663
(dp664
g557
I20
sg174
I4
sVinformation systems
p665
I2
sg329
I4
sg426
I8
sVforest management
p666
I4
sg303
I4
sg131
I20
sVeconometrics
p667
I20
sg204
I4
sVlabor economics
p668
I4
sVindustrial organization
p669
I4
sg558
I12
sg284
I4
sVeconomic theory
p670
I12
sVinformation system
p671
I2
sg109
I44
ssVapply statistic
p672
(dp673
Vlinear algebra
p674
I2
sVnumerical analysis
p675
I2
ssVplasma physics
p676
(dp677
Vastrophysics
p678
I2
ssVcircuit
p679
(dp680
Velectronics
p681
I2
sVanalysis
p682
I2
sVtheatre
p683
I2
ssVtoxicology
p684
(dp685
g574
I2
sg300
I4
sg385
I4
sg646
I4
sg281
I4
sVtherapeutic
p686
I2
sg109
I4
ssVgenomics
p687
(dp688
g197
I4
sg131
I16
sg625
I4
ssVclassics
p689
(dp690
Vnatural science
p691
I2
sg303
I2
sVcomparative literature
p692
I2
sg109
I2
ssVdynamical system
p693
(dp694
Vmanufacture
p695
I2
sVenzyme
p696
I2
ssVbotany
p697
(dp698
g371
I4
sg296
I4
sg491
I8
ssVnatural science
p699
(dp700
g79
I8
sg432
I4
sg160
I4
sg10
I76
sg14
I24
sVstatistic
p701
I2
sg501
I8
sg275
I4
sg420
I4
sg31
I2
sg496
I4
sg95
I4
sg161
I4
sg270
I4
sg252
I4
sg235
I4
sg238
I4
sg99
I4
sg219
I28
sVbiogeochemistry
p702
I4
sVearth science
p703
I4
sVnuclear physics
p704
I2
sg309
I4
sg295
I4
sg37
I40
sg157
I4
sVsoil science
p705
I4
sVnuclear physic
p706
I2
sg216
I24
sVphysic
p707
I34
sVhydrology
p708
I4
sg197
I16
sg56
I12
sg134
I68
sg126
I34
ssVtopography
p709
(dp710
g157
I4
ssVmicroorganism
p711
(dp712
g174
I4
sg371
I8
sg309
I4
sg95
I4
sg226
I4
sg306
I4
sg434
I4
sg167
I4
sg496
I8
sg101
I4
ssVmineralogy
p713
(dp714
g134
I4
ssVcommunication
p715
(dp716
g224
I4
sVgraphics
p717
I8
sg499
I4
sg344
I8
sVproxemics
p718
I4
sVoptic
p719
I2
sg458
I4
sg432
I4
sg371
I4
sg131
I8
sg163
I4
sVaudiology
p720
I4
sg159
I20
sg179
I4
sVcognitive science
p721
I4
sg198
I8
sg464
I4
sg199
I4
sVgraphic
p722
I8
sg617
I2
sg354
I4
ssVquantum physic
p723
(dp724
Vstatistical mechanic
p725
I2
sVatom
p726
I4
sValgebra
p727
I2
sVquantum mechanic
p728
I2
ssVstratigraphy
p729
(dp730
Vcorrelation
p731
I4
ssVanimal science
p732
(dp733
g174
I4
ssVhygiene
p734
(dp735
g131
I4
ssVastronautics
p736
(dp737
Vastrodynamics
p738
I4
sg131
I4
ssVbiomechanics
p739
(dp740
g231
I2
sVmechanic
p741
I2
ssVapplied statistics
p742
(dp743
Vlinear algebra
p744
I2
sVnumerical analysis
p745
I2
ssVzoology
p746
(dp747
Vichthyology
p748
I4
sg10
I4
sVmammalogy
p749
I4
sg496
I4
sg295
I4
sVmalacology
p750
I4
sg364
I4
sg306
I4
sg371
I4
sVherpetology
p751
I8
sg101
I8
sg109
I4
ssVrace and ethnicity
p752
(dp753
g17
I4
ssVearth science
p754
(dp755
Vbiology
p756
I2
sVoceanography
p757
I2
sVgeology
p758
I8
sVmeteorology
p759
I2
sVgeophysics
p760
I6
sVastronomy
p761
I2
sVphysic
p762
I4
ssVhorticulture
p763
(dp764
g705
I4
sg496
I4
sVdevelopmental anatomy
p765
I4
sg197
I8
sg364
I4
sg306
I4
sg371
I4
sVplant pathology
p766
I4
sg101
I4
ssVepistemology
p767
(dp768
Vphilosophy of language
p769
I4
ssVstatistics
p770
(dp771
g464
I2
sg144
I2
sg745
I2
sg204
I2
sg279
I6
sg744
I4
sg432
I2
sg131
I4
sg731
I12
sg109
I2
ssVapply mechanic
p772
(dp773
Vmechanic of material
p774
I2
ssVneurobiology
p775
(dp776
g10
I4
sg236
I8
ssVemergency medicine
p777
(dp778
g8
I4
ssVphonetics
p779
(dp780
g131
I4
ssVmicroeconomics
p781
(dp782
g432
I24
sVpublic economics
p783
I8
sg669
I4
sg66
I4
sg668
I8
ssVpolitical history
p784
(dp785
g303
I4
sVcontemporary history
p786
I4
sg109
I4
ssVquantum mechanics
p787
(dp788
g231
I2
sVparticle physics
p789
I2
sg731
I2
ssVinformation science
p790
(dp791
g10
I4
sg705
I4
sg37
I4
sg197
I8
sg270
I4
sg371
I4
sg273
I4
sg387
I4
sg501
I4
sg134
I4
sg126
I2
sVphysic
p792
I2
ssVmusic
p793
(dp794
Vethic
p795
I2
sg199
I4
sVclassic
p796
I4
sg303
I4
sg131
I4
sVmusic theory
p797
I4
sg14
I4
sVo
I2
sg100
I2
sVclassics
p798
I4
sVos
p799
I2
sg226
I12
sg109
I12
ssVphysic
p800
(dp801
Vnuclear medicine
p802
I4
sVpartial differential equation
p803
I2
sVquantum physic
p804
I6
sVoncology
p805
I4
sVpolitics
p806
I2
sVcrystallography
p807
I2
sVinstrumentation
p808
I2
sVoceanography
p809
I2
sVparticle physic
p810
I10
sVreligion
p811
I2
sVmetallurgy
p812
I2
sVthermodynamics
p813
I18
sVgeodesy
p814
I2
sVcommunication
p815
I2
sVfluid mechanic
p816
I4
sVmathematics
p817
I4
sVtopology
p818
I2
sVeconomic theory
p819
I2
sVfluid dynamic
p820
I2
sVquantum mechanic
p821
I16
sVcalculus
p822
I2
sVbiology
p823
I2
sVmechanic
p824
I46
sVoptic
p825
I12
sVgeology
p826
I2
sVcondensed matter physic
p827
I2
sVbiophysics
p828
I8
sVastrophysics
p829
I2
sVmagnetism
p830
I18
sVhydrostatics
p831
I2
sVgeophysics
p832
I2
sVseismology
p833
I2
sVatom
p834
I2
sVpsychology
p835
I2
sVastronomy
p836
I8
sVelectromagnetism
p837
I10
sVphotonics
p838
I2
sVgeometry
p839
I2
sVmeteorology
p840
I2
sVclassical mechanic
p841
I4
sVanalysis
p842
I6
sVcosmology
p843
I6
sVstatistical mechanic
p844
I8
sVcircuit
p845
I2
sVgeomorphology
p846
I2
sVacoustic
p847
I2
sVchemistry
p848
I4
sVhistory
p849
I2
ssVmemory
p850
(dp851
g126
I2
sg163
I8
sg198
I8
sVphysic
p852
I2
sg109
I4
ssVastrophysics
p853
(dp854
g131
I8
ssVkinematics
p855
(dp856
g159
I4
ssVelectromagnetism
p857
(dp858
g220
I4
sg617
I2
sg121
I4
sVoptic
p859
I2
sg620
I4
ssVartificial intelligence
p860
(dp861
g358
I4
sg101
I4
sg459
I2
sVproblem solve
p862
I2
ssVquantum mechanic
p863
(dp864
Vparticle physic
p865
I2
sVmechanic
p866
I2
sVcorrelation
p867
I2
ssVmanufacture
p868
(dp869
Velectronics
p870
I2
sVrobotics
p871
I2
sVengineering
p872
I2
ssVnutrition
p873
(dp874
g197
I4
sg646
I4
sg13
I4
sg226
I16
sg109
I12
ssVmolecular biology
p875
(dp876
g95
I4
sg578
I4
sg131
I4
sg576
I4
sg400
I4
ssVplant pathology
p877
(dp878
g8
I4
sg9
I4
sg371
I4
ssVpolitical theory
p879
(dp880
g303
I4
sg131
I4
ssVatmospheric science
p881
(dp882
Vvulcanology
p883
I2
sVmeteorology
p884
I2
sVoceanography
p885
I2
sVpaleoecology
p886
I2
ssVinformation systems
p887
(dp888
g197
I2
sVcybernetics
p889
I2
sg131
I2
sg717
I2
ssVgeophysics
p890
(dp891
Vseismology
p892
I4
sg126
I2
sVsolar physics
p893
I2
sVphysic
p894
I2
sVsolar physic
p895
I2
ssVchemical engineering
p896
(dp897
Vethic
p898
I4
sg219
I4
sg100
I4
sg434
I4
ssVdentistry
p899
(dp900
g8
I4
sg385
I4
sg292
I4
sg9
I4
sVendodontics
p901
I4
ssVpsychotherapy
p902
(dp903
g470
I4
sg461
I4
ssVbiomedicine
p904
(dp905
g300
I4
sg306
I4
sg418
I4
sg99
I8
sg9
I4
sg101
I4
ssVapplied linguistics
p906
(dp907
g159
I4
ssVsemantics
p908
(dp909
g657
I4
ssVlife sciences
p910
(dp911
g371
I2
sg625
I6
sg14
I2
sVenvironmental sciences
p912
I4
sg292
I2
sg420
I2
sg298
I2
sg144
I8
sg496
I10
sg95
I12
sg296
I10
sg578
I2
sg99
I10
sVembryology
p913
I2
sg10
I22
sg295
I4
sg575
I2
sg385
I2
sVplant science
p914
I2
sVchemical engineering
p915
I2
sg434
I4
sg179
I2
sg197
I10
sg315
I2
ssVcytology
p916
(dp917
g496
I4
ssVsoftware engineering
p918
(dp919
g131
I12
sg159
I4
ssVphysical geography
p920
(dp921
Vgeomorphology
p922
I4
sg197
I4
sg267
I8
ssVcircuits
p923
(dp924
g220
I2
sg131
I2
sg199
I2
ssVscience
p925
(dp926
g94
I28
sVbiostatistics
p927
I4
sg489
I12
sg167
I4
sVglaciology
p928
I4
sg540
I2
sg420
I24
sVethic
p929
I6
sg224
I8
sg574
I2
sVparticle physic
p930
I2
sg462
I4
sg297
I4
sg252
I8
sg235
I12
sVquantum physics
p931
I4
sVbiomedical
p932
I4
sg13
I4
sg231
I8
sVphysical chemistry
p933
I4
sg704
I4
sVquantum physic
p934
I4
sg426
I8
sg300
I16
sg37
I140
sg274
I2
sg385
I12
sg364
I4
sg99
I148
sVlaser physics
p935
I6
sVnetwork
p936
I4
sg314
I12
sg617
I18
sVtherapeutic
p937
I2
sVaeronautics
p938
I4
sg371
I84
sg188
I2
sVmaterial chemistry
p939
I2
sg90
I4
sVstatistic
p940
I8
sg789
I2
sg308
I16
sg284
I72
sVfluid dynamics
p941
I2
sg204
I136
sVeconomic geology
p942
I4
sg422
I8
sg255
I8
sg296
I20
sVpopulation biology
p943
I4
sg238
I4
sVlife science
p944
I6
sg220
I12
sVapply science
p945
I2
sVfluid dynamic
p946
I2
sg10
I348
sVearth sciences
p947
I2
sg305
I4
sg157
I32
sg492
I4
sg121
I4
sg418
I8
sVapply mathematics
p948
I4
sg653
I2
sg395
I4
sg101
I60
sVmolecular genetics
p949
I4
sg431
I12
sg708
I12
sg8
I8
sVgeometry
p950
I16
sg432
I28
sVcircuit
p951
I2
sg922
I4
sg315
I16
sg79
I28
sg691
I24
sg352
I4
sg279
I8
sg625
I8
sg358
I4
sg720
I4
sg240
I2
sg889
I4
sg179
I24
sg501
I16
sVlaser physic
p952
I6
sg465
I8
sg703
I14
sg144
I12
sg31
I8
sg268
I24
sg580
I4
sg95
I44
sg194
I2
sVinformation science
p953
I4
sg198
I4
sg464
I4
sg678
I20
sVcryobiology
p954
I8
sVpsychopharmacology
p955
I4
sg354
I4
sVquantum mechanic
p956
I2
sVmanufacture
p957
I4
sg174
I20
sg295
I12
sg399
I4
sg145
I4
sg585
I16
sg915
I4
sg98
I20
sVmethodologies
p958
I2
sVhydrogeology
p959
I8
sVlife sciences
p960
I2
sValgorithm
p961
I2
sg538
I2
sVapplied mathematics
p962
I4
sg56
I40
sg369
I4
sg319
I4
sVmechanic
p963
I8
sg267
I12
sg109
I76
sVmedical science
p964
I8
sg578
I4
sVanalytical chemistry
p965
I4
sg14
I96
sg721
I12
sg17
I12
sg96
I4
sg419
I4
sg217
I12
sg9
I16
sg182
I4
sg318
I4
sVpaleobiology
p966
I4
sg575
I20
sg322
I12
sg260
I4
sVmethodology
p967
I2
sg218
I32
sg433
I16
sg219
I124
sg702
I4
sg381
I24
sg329
I4
sVphytochemistry
p968
I4
sVoptic
p969
I18
sg193
I4
sg303
I40
sVbiophysics
p970
I8
sg306
I32
sVinformation system
p971
I2
sg428
I12
sg434
I8
sg165
I4
sg496
I32
sg100
I6
sg216
I176
sVphysic
p972
I246
sg276
I8
sg665
I2
sVnuclear physic
p973
I4
sVsoftware engineering
p974
I4
sg251
I8
sg131
I36
sVphrenology
p975
I8
sVstatistical mechanic
p976
I2
sg659
I2
sVcontrol theory
p977
I4
sg273
I20
sg134
I348
sg126
I246
sg436
I36
ssVapplied mathematics
p978
(dp979
g259
I4
sg659
I2
ssVdevelopmental psychology
p980
(dp981
g465
I8
ssVsystematics
p982
(dp983
g617
I2
sVoptic
p984
I2
ssVfood science
p985
(dp986
g174
I4
sVfood processing
p987
I4
sg14
I4
sg296
I4
sg131
I4
ssVgeometry
p988
(dp989
g329
I4
sg305
I4
sg10
I4
sg31
I2
sg279
I4
sValgorithm
p990
I2
sg193
I4
sg744
I8
sValgebraic geometry
p991
I8
sVnumber theory
p992
I8
sVplane geometry
p993
I4
sg659
I2
sVstatistic
p994
I2
sg179
I4
sg420
I4
sVtrigonometry
p995
I4
sg109
I4
ssVenvironmental sciences
p996
(dp997
g10
I6
sg371
I6
sg708
I2
sg37
I4
sg966
I2
sg385
I4
sg315
I4
sg959
I4
ssVsolid state physic
p998
(dp999
Vmagnetism
p1000
I2
ssVcultural history
p1001
(dp1002
g284
I8
sg204
I4
sg109
I8
ssVmechanic
p1003
(dp1004
Vvector algebra
p1005
I2
sVgrammar
p1006
I6
sValgebra
p1007
I2
sVmechanic of material
p1008
I2
sVdynamic
p1009
I10
sVanalysis
p1010
I2
sVstatic
p1011
I2
sVkinematics
p1012
I8
sVbiomechanics
p1013
I2
ssVelectrical engineering
p1014
(dp1015
Vdigital circuits
p1016
I2
sVoptic
p1017
I2
sg538
I2
sVdigital circuit
p1018
I2
sVcircuit
p1019
I2
sg617
I2
ssVpersonality
p1020
(dp1021
g464
I8
ssVsoil chemistry
p1022
(dp1023
g134
I4
sg270
I4
ssVapplied mechanics
p1024
(dp1025
g347
I2
ssVhistory
p1026
(dp1027
Vprehistory
p1028
I4
sVsocial history
p1029
I4
sg17
I4
sg420
I4
sVmodern history
p1030
I8
sg297
I8
sg200
I4
sVancient history
p1031
I4
sg198
I4
sg464
I8
sVcultural history
p1032
I4
sVhuman geography
p1033
I4
sVeugenics
p1034
I4
sg428
I4
sg75
I4
sg145
I4
sg159
I4
sVphysical geography
p1035
I4
sg197
I4
sVmedieval history
p1036
I4
sg307
I4
sg134
I4
sg436
I8
ssVmechanics
p1037
(dp1038
g347
I2
sg244
I2
sVvector algebra
p1039
I2
sg344
I6
sg193
I2
sg131
I2
sg185
I8
sg388
I10
sVbiomechanics
p1040
I2
ssVclassic
p1041
(dp1042
Vnatural science
p1043
I2
sVphilosophy
p1044
I2
sVcomparative literature
p1045
I2
sVhistory
p1046
I2
ssVpetrology
p1047
(dp1048
Vvolcanology
p1049
I4
ssVastronomy and astrophysics
p1050
(dp1051
g678
I8
sg14
I4
sg216
I4
sg217
I4
ssVanalytical chemistry
p1052
(dp1053
g131
I4
ssVhistory of philosophy
p1054
(dp1055
g303
I8
sVancient philosophy
p1056
I4
ssVpublic economics
p1057
(dp1058
g432
I4
ssVmusic theory
p1059
(dp1060
g131
I4
ssVengineering
p1061
(dp1062
g231
I2
sg371
I4
sg352
I12
sg13
I4
sg358
I12
sVdynamic
p1063
I2
sg10
I4
sg17
I4
sg388
I2
sVethic
p1064
I2
sg577
I12
sg268
I4
sg204
I8
sVmechanical engineering
p1065
I8
sg466
I4
sg977
I4
sg99
I8
sg97
I4
sg220
I4
sg354
I4
sVmanufacture
p1066
I2
sg215
I2
sg704
I2
sg351
I4
sg300
I4
sg37
I4
sVhydrostatics
p1067
I8
sg915
I4
sg219
I8
sVnuclear physic
p1068
I2
sg100
I2
sg395
I2
sVphysic
p1069
I6
sg708
I4
sg974
I4
sValgorithm
p1070
I2
sg197
I12
sg432
I8
sg131
I16
sVcivil engineering
p1071
I4
sg659
I2
sVmechanic
p1072
I2
sVelectrical engineering
p1073
I4
sg134
I4
sg126
I6
sVmaterial science
p1074
I2
ssVcognitive science
p1075
(dp1076
g224
I8
sg354
I12
sg204
I8
sg159
I4
sg462
I4
sg458
I4
sg303
I8
sg466
I4
sg323
I4
sg157
I4
sg218
I4
sg464
I4
sg179
I12
sVexperimental psychology
p1077
I8
ssVergonomics
p1078
(dp1079
Vmanufacture
p1080
I2
sg395
I2
ssVenvironmental health
p1081
(dp1082
g371
I4
ssVsocial history
p1083
(dp1084
g109
I8
ssVpolitics
p1085
(dp1086
g417
I6
sg159
I4
sg197
I4
sg432
I8
sg131
I4
sg200
I4
sg649
I4
sVinternational relation
p1087
I6
sVpublic policy
p1088
I4
ssVpathology
p1089
(dp1090
Vethic
p1091
I2
sg100
I2
sg309
I4
sg90
I4
ssVcosmology
p1092
(dp1093
g678
I8
sg216
I4
sg789
I2
sVparticle physic
p1094
I2
ssVpure mathematics
p1095
(dp1096
g230
I4
sg950
I4
sg131
I4
sg992
I4
ssVmetaphysics
p1097
(dp1098
Vphilosophy of religion
p1099
I4
sg198
I4
sg226
I4
ssVinstrumentation
p1100
(dp1101
g311
I4
sg174
I16
sg10
I8
sg641
I4
sVoptic
p1102
I2
sg131
I8
sg192
I4
sg134
I4
sg617
I2
sg101
I8
ssVhumanities
p1103
(dp1104
g1028
I8
sVsocial science
p1105
I2
sVclassic
p1106
I4
sg13
I8
sg721
I4
sg371
I4
sg17
I4
sg461
I4
sg308
I2
sVethic
p1107
I2
sg224
I8
sg284
I12
sg204
I16
sg798
I4
sg422
I4
sg200
I8
sg198
I8
sg218
I4
sg219
I8
sg10
I4
sg225
I4
sg199
I4
sg385
I4
sg303
I52
sVpolitical theory
p1108
I4
sg428
I4
sg100
I2
sVphysic
p1109
I2
sg157
I4
sg134
I4
sg344
I4
sg159
I4
sg432
I12
sg433
I8
sg307
I4
sg109
I80
sg126
I2
sg436
I12
sg435
I4
ssVbiochemistry
p1110
(dp1111
g309
I4
sg304
I4
sVmethodology
p1112
I2
sg970
I4
sg646
I4
sVenzymology
p1113
I4
sg958
I2
sVimmunochemistry
p1114
I4
sg134
I4
ssVpsychoanalysis
p1115
(dp1116
g303
I4
ssVpaleontology
p1117
(dp1118
Vpaleoanthropology
p1119
I4
sg370
I4
sVpaleozoology
p1120
I4
ssVstructural biology
p1121
(dp1122
g14
I4
ssVforestry
p1123
(dp1124
g303
I4
sg197
I4
sg432
I4
sg306
I4
sg666
I8
sg371
I12
sg420
I4
sg101
I4
sg109
I4
ssVmethodology
p1125
(dp1126
Vcartography
p1127
I2
sVgenetics
p1128
I2
sVpsychology
p1129
I4
sVscience
p1130
I2
sVanalysis
p1131
I14
sVtheology
p1132
I2
sVcomputational linguistics
p1133
I2
sVethnography
p1134
I2
sVproteomics
p1135
I2
ssVgenetics
p1136
(dp1137
g144
I4
sg255
I8
sg580
I8
sg295
I12
sg79
I8
sg625
I4
sVcytogenetics
p1138
I12
sg131
I12
sg949
I8
sVpharmacogenetics
p1139
I4
sg371
I4
sg218
I4
sg66
I4
sg99
I8
sg8
I4
ssVcomputer science
p1140
(dp1141
g745
I4
sVsystem engineering
p1142
I2
sg352
I4
sg358
I4
sg459
I2
sg653
I2
sVnetwork
p1143
I2
sg654
I6
sg75
I4
sg219
I4
sg354
I16
sVprogramming language
p1144
I6
sVsystems engineering
p1145
I2
sg193
I4
sVapply mathematics
p1146
I2
sg717
I4
sg974
I20
sVphysic
p1147
I2
sg560
I4
sVgraphic
p1148
I4
sg159
I4
sValgorithm
p1149
I16
sg962
I2
sVproblem solve
p1150
I2
sg131
I20
sg659
I16
sg126
I2
ssVmathematics
p1151
(dp1152
g329
I68
sg279
I24
sVpartial differential equation
p1153
I6
sVdynamic
p1154
I2
sg993
I4
sVstatistic
p1155
I18
sg388
I2
sg322
I4
sg305
I4
sg31
I18
sVintegral calculus
p1156
I8
sg95
I4
sVscientific computing
p1157
I4
sg744
I20
sVmultidisciplinary design optimization
p1158
I4
sg381
I28
sg218
I16
sg230
I12
sg10
I4
sg351
I4
sg193
I84
sg991
I8
sg259
I6
sVapply mathematics
p1159
I4
sg216
I12
sVphysic
p1160
I4
sg560
I24
sValgorithm
p1161
I2
sg950
I104
sg197
I4
sg962
I4
sg131
I48
sg992
I44
sg659
I2
sVsolid geometry
p1162
I4
sVset theory
p1163
I12
sg134
I8
sg126
I4
sg995
I28
ssVstructural material
p1164
(dp1165
Vanalysis
p1166
I2
ssVcomposition
p1167
(dp1168
g198
I4
sg388
I2
sVdynamic
p1169
I2
sg174
I4
ssVcalculus
p1170
(dp1171
g10
I4
sg193
I4
sg197
I4
sg432
I4
sg163
I4
sg134
I4
sg75
I4
sg560
I4
ssVapply linguistics
p1172
(dp1173
Vlanguage
p1174
I4
ssVtheatre
p1175
(dp1176
g17
I4
sg198
I4
sg109
I4
ssValgebra
p1177
(dp1178
g230
I8
sg744
I4
sg991
I4
sg329
I4
sg381
I4
ssVocean engineering
p1179
(dp1180
g577
I8
sg1067
I8
ssVphilosophy
p1181
(dp1182
g371
I8
sVpragmatic
p1183
I2
sg912
I2
sg131
I4
sg17
I4
sg322
I76
sVethic
p1184
I30
sg305
I44
sg204
I8
sg200
I8
sg198
I4
sg75
I4
sVethics and political philosophy
p1185
I2
sg1099
I12
sVhistory of philosophy
p1186
I32
sVfeminist philosophy
p1187
I4
sVenvironmental science
p1188
I2
sVethic and political philosophy
p1189
I2
sg1034
I4
sg157
I4
sg100
I30
sg769
I28
sg74
I2
sVphysic
p1190
I2
sg159
I8
sg197
I4
sg323
I12
sVphilosophy of science
p1191
I28
sg126
I2
sg109
I8
ssVanesthesiology
p1192
(dp1193
g299
I8
ssVbiophysics
p1194
(dp1195
g231
I2
sg10
I8
sg236
I4
sg235
I4
sVmechanic
p1196
I2
sg220
I4
ssVanatomy
p1197
(dp1198
g89
I4
sg580
I4
sVgross anatomy
p1199
I4
sg90
I8
sVfunctional anatomy
p1200
I4
sVneuroanatomy
p1201
I4
ssValgebraic geometry
p1202
(dp1203
g995
I4
ssVsolid state physics
p1204
(dp1205
g121
I2
ssVinformation system
p1206
(dp1207
Vscience
p1208
I2
sVgraphic
p1209
I2
sVcybernetics
p1210
I2
sVanalysis
p1211
I2
ssVplasma physic
p1212
(dp1213
Vastrophysics
p1214
I2
ssVpolitical science
p1215
(dp1216
g230
I4
sVcomparative politics
p1217
I4
sg432
I4
sg1108
I4
sVinternational relation
p1218
I2
sg17
I12
sg417
I2
sg109
I4
ssVcell biology
p1219
(dp1220
g95
I4
sg1114
I4
sg304
I4
sg10
I4
sg295
I4
ssVneuroscience
p1221
(dp1222
Vethic
p1223
I2
sg1201
I4
sg204
I4
sg400
I4
sg399
I12
sg304
I4
sVproblem solve
p1224
I2
sg306
I8
sg313
I12
sg459
I2
sg307
I12
sg100
I2
sg134
I4
sg101
I4
ssVethics
p1225
(dp1226
g255
I2
sg204
I2
sg303
I2
sg131
I4
sg200
I2
sg17
I2
sg109
I2
ssVastronomy
p1227
(dp1228
g577
I4
sVsocial science
p1229
I2
sVoptic
p1230
I2
sg126
I2
sg217
I8
sg678
I4
sg617
I2
sg308
I2
sVphysic
p1231
I2
sg420
I4
ssVfluid mechanics
p1232
(dp1233
g185
I2
sg14
I2
sg617
I2
sg109
I2
ssVbehavioural sciences
p1234
(dp1235
g157
I2
sg10
I2
sg432
I2
sg159
I2
sg428
I2
ssVchemistry
p1236
(dp1237
g270
I4
sg965
I4
sg388
I2
sVcrystallography
p1238
I8
sVpharmaceutics
p1239
I2
sg295
I4
sg95
I24
sVpharmaceutic
p1240
I2
sg296
I4
sg194
I2
sg235
I8
sg238
I8
sg226
I8
sg933
I4
sg230
I4
sVorganic chemistry
p1241
I28
sg232
I4
sg300
I8
sVdynamic
p1242
I2
sg970
I4
sVmedicinal chemistry
p1243
I4
sg121
I4
sg915
I4
sg101
I4
sVphysic
p1244
I2
sg229
I4
sg950
I4
sg197
I4
sg432
I4
sg236
I12
sg97
I4
sVquantum mechanic
p1245
I2
sg126
I2
ssVmethodologies
p1246
(dp1247
g20
I2
sg496
I2
sg204
I4
sg197
I2
sg131
I14
sg433
I2
sg210
I2
sg418
I2
sg625
I2
ssValgorithm
p1248
(dp1249
Vmotor control
p1250
I2
sVanalysis
p1251
I2
sVmemory
p1252
I2
ssVphotonics
p1253
(dp1254
g617
I2
sVoptic
p1255
I2
ssVenvironmental engineering
p1256
(dp1257
g708
I4
ssVprogramming languages
p1258
(dp1259
g159
I2
ssVprosthetics
p1260
(dp1261
g101
I4
ssVanalysis
p1262
(dp1263
g20
I4
sg417
I2
sg279
I8
sVpartial differential equation
p1264
I2
sg965
I4
sg90
I4
sVstatistic
p1265
I16
sg17
I4
sg667
I4
sg134
I4
sVethic
p1266
I2
sg577
I4
sg31
I16
sg204
I4
sg641
I8
sg297
I4
sVmethodology
p1267
I2
sg198
I4
sVinternational relation
p1268
I2
sg625
I4
sg99
I4
sg751
I4
sg381
I8
sg465
I4
sg174
I4
sg193
I8
sg464
I4
sg259
I2
sg121
I4
sVinformation system
p1269
I4
sg100
I2
sg560
I8
sg665
I4
sg958
I2
sg950
I8
sg197
I8
sg432
I4
sg236
I8
sg731
I24
sg13
I4
sVsoil chemistry
p1270
I4
sVsociology of culture
p1271
I4
sg995
I4
ssVtheology
p1272
(dp1273
g197
I4
sg109
I4
ssVlabor economics
p1274
(dp1275
g131
I4
ssValgorithms
p1276
(dp1277
Vmotor control
p1278
I2
sg131
I2
sg464
I2
ssVcultural anthropology
p1279
(dp1280
g418
I4
ssVpsychiatry
p1281
(dp1282
g99
I4
sg8
I8
sg109
I4
ssVbiotechnology
p1283
(dp1284
g144
I4
sg295
I8
sg95
I8
sg197
I4
sg255
I4
sg14
I4
ssVbehavioural science
p1285
(dp1286
Vanthropology
p1287
I2
sVbiology
p1288
I2
sVeconomics
p1289
I2
sVlanguage
p1290
I2
sVpolitical science
p1291
I2
ssVphysics
p1292
(dp1293
g231
I46
sVnuclear medicine
p1294
I4
sg188
I8
sg287
I4
sg17
I2
sg1238
I2
sg789
I10
sg577
I2
sg941
I2
sg204
I2
sg200
I2
sg194
I16
sg252
I2
sg235
I18
sg931
I6
sg273
I2
sg13
I2
sg678
I2
sg219
I4
sg560
I2
sg670
I2
sg329
I2
sg10
I2
sg37
I2
sg970
I8
sg259
I2
sg121
I18
sg1067
I2
sg585
I2
sg892
I2
sg192
I2
sg268
I2
sg216
I8
sVclassical mechanics
p1295
I4
sg248
I4
sVelectromagnetism
p1296
I10
sg326
I2
sg251
I2
sg950
I2
sVacoustics
p1297
I2
sg56
I2
sg131
I6
sg217
I6
sg538
I2
sg922
I2
sg134
I4
sg617
I12
sg109
I2
ssVmaterial science
p1298
(dp1299
Vphotonics
p1300
I2
sVscience
p1301
I2
sVelectrochemistry
p1302
I2
sVmetallurgy
p1303
I4
sVbiomaterials
p1304
I2
sVelectronics
p1305
I2
sVphysic
p1306
I2
ssVphilosophy of science
p1307
(dp1308
g10
I4
sg279
I4
sg303
I4
sg217
I4
sg721
I4
sg109
I4
sssS'hypo2hyper'
p1309
g3
(g4
tRp1310
g749
(dp1311
g746
I4
ssg1009
(dp1312
Vbiology
p1313
I4
sVecology
p1314
I2
sVengineering
p1315
I2
sVmechanic
p1316
I10
sVmathematics
p1317
I2
sVchemistry
p1318
I2
sVcomposition
p1319
I2
ssg167
(dp1320
g155
I12
sg566
I12
sg330
I12
sg711
I4
sg650
I36
sg925
I4
ssg559
(dp1321
g555
I8
ssg959
(dp1322
g925
I8
sg996
I4
sg593
I4
ssg574
(dp1323
g684
I2
sg566
I2
sg925
I2
ssg1156
(dp1324
g1151
I8
ssg462
(dp1325
g925
I4
sg1075
I4
sg456
I4
ssg252
(dp1326
g249
I4
sg699
I4
sg925
I8
sg285
I4
sg1292
I2
sg1298
I4
sg800
I2
ssg425
(dp1327
g415
I2
ssg215
(dp1328
g213
I2
sg1061
I2
ssg244
(dp1329
g242
I2
sg1037
I2
ssg37
(dp1330
g699
I40
sVsocial science
p1331
I4
sg790
I4
sVenvironmental science
p1332
I4
sg925
I140
sg583
I8
sg497
I4
sg1061
I4
sg996
I4
sg102
I4
sg213
I12
sg362
I4
sVphysical science
p1333
I12
sg1292
I2
sVphysic
p1334
I2
sg754
I8
ssg162
(dp1335
g155
I4
ssg1034
(dp1336
g1181
I4
sg1026
I4
ssg816
(dp1337
Vengineering science
p1338
I2
sVphysic
p1339
I4
ssg769
(dp1340
g767
I4
sg1181
I28
ssg164
(dp1341
g155
I12
sg330
I16
sg650
I32
ssg1071
(dp1342
g1061
I4
ssg314
(dp1343
g285
I4
sg925
I12
ssg1271
(dp1344
g1262
I4
ssg617
(dp1345
g1100
I2
sg1253
I2
sg925
I18
sg982
I2
sg615
I2
sg715
I2
sg1014
I2
sg1227
I2
sg1292
I12
sg1232
I2
sg857
I2
ssg938
(dp1346
g925
I4
ssg745
(dp1347
g1140
I4
sg770
I2
sg672
I2
sg742
I2
sg401
I2
ssg158
(dp1348
Vlinguistics
p1349
I8
sVphilosophy
p1350
I2
sVgrammar
p1351
I2
sVcomputational linguistics
p1352
I2
sVlanguage
p1353
I6
ssg160
(dp1354
g155
I12
sg699
I4
sg456
I4
sg650
I4
sg471
I12
ssg188
(dp1355
g925
I2
sg190
I2
sg1292
I8
sg186
I2
sg227
I4
ssg23
(dp1356
Vsocial science
p1357
I2
ssg398
(dp1358
g396
I4
ssg281
(dp1359
g684
I4
sg277
I4
ssg1238
(dp1360
g1236
I8
sg1292
I2
sVphysic
p1361
I2
ssg296
(dp1362
g697
I4
sg910
I10
sg925
I20
sg566
I16
sg985
I4
sg285
I8
sg508
I10
sg1236
I4
ssg649
(dp1363
g1085
I4
sg647
I4
ssg944
(dp1364
g925
I6
ssg353
(dp1365
g349
I2
ssg939
(dp1366
Vscience
p1367
I2
sVphysical chemistry
p1368
I2
ssg299
(dp1369
g285
I4
sg1192
I8
ssg526
(dp1370
Vlife science
p1371
I4
sVphilosophy
p1372
I2
ssg441
(dp1373
g439
I4
ssg1189
(dp1374
Vphilosophy
p1375
I2
ssg157
(dp1376
g155
I4
sg699
I4
sg709
I4
sg446
I2
sVsocial science
p1377
I54
sg650
I4
sg1103
I4
sg925
I32
sg1181
I4
sg497
I4
sg1075
I4
sg1285
I2
sg415
I46
sg221
I2
sg1234
I2
ssg611
(dp1378
g607
I8
ssg692
(dp1379
g689
I2
sg1041
I2
ssg1278
(dp1380
g1276
I2
sg1248
I2
ssg96
(dp1381
g91
I8
sg925
I4
ssg101
(dp1382
g91
I4
sg1100
I8
sg566
I44
sg383
I4
sg711
I4
sg904
I4
sg925
I60
sg1260
I4
sg763
I4
sg1123
I4
sg746
I8
sg1221
I4
sg367
I8
sg860
I4
sg1236
I4
ssg229
(dp1383
g1236
I4
sg227
I4
ssg267
(dp1384
g925
I12
sg265
I4
sVsocial science
p1385
I2
sg415
I2
sg920
I8
ssg718
(dp1386
g715
I4
ssg432
(dp1387
g699
I4
sVsocial science
p1388
I92
sg715
I4
sg1061
I8
sVstatistic
p1389
I2
sg1085
I8
sg415
I76
sg442
I4
sg1103
I12
sg1123
I4
sg497
I8
sg781
I24
sg555
I28
sg1170
I4
sg770
I2
sg1215
I4
sg1234
I2
sg1236
I4
sg650
I4
sg925
I28
sg1057
I4
sg1262
I4
sVbehavioural science
p1390
I2
ssg473
(dp1391
Vneuroscience
p1392
I2
sVcomputer science
p1393
I2
sVpsychology
p1394
I2
sVartificial intelligence
p1395
I2
sVcognitive psychology
p1396
I6
ssg1018
(dp1397
Velectrical engineering
p1398
I2
ssg1036
(dp1399
g1026
I4
ssg786
(dp1400
g784
I4
ssg1294
(dp1401
g1292
I4
sVphysic
p1402
I4
ssg476
(dp1403
g474
I4
ssg352
(dp1404
g925
I4
sg1061
I12
sg349
I4
sg1140
I4
ssg804
(dp1405
Vscience
p1406
I4
sVphysic
p1407
I6
ssg289
(dp1408
Vmedicine
p1409
I2
ssg359
(dp1410
g356
I4
ssg223
(dp1411
Vperformance study
p1412
I2
sg221
I2
ssg144
(dp1413
g910
I8
sg770
I2
sg1136
I4
sg925
I12
sg566
I4
sg285
I4
sg623
I4
sVstatistic
p1414
I2
sVlife science
p1415
I8
sg1283
I4
sg141
I4
ssg400
(dp1416
g1221
I4
sg396
I4
sg875
I4
sg650
I8
ssg620
(dp1417
g615
I4
sg857
I4
ssg558
(dp1418
g663
I12
sg555
I4
ssg194
(dp1419
g1236
I2
sg925
I2
sg190
I2
sg1292
I16
sg227
I2
ssg198
(dp1420
g925
I4
sVperformance study
p1421
I2
sg650
I8
sg1175
I4
sg1103
I8
sg715
I8
sg1181
I4
sg1262
I4
sg1167
I4
sg497
I4
sg850
I8
sg195
I4
sg1097
I4
sg221
I2
sg1026
I4
ssg464
(dp1422
g925
I4
sg770
I2
sg456
I24
sValgorithm
p1423
I2
sg471
I24
sg715
I4
sg1262
I4
sg1075
I4
sg1276
I2
sVstatistic
p1424
I2
sg1026
I8
sg1020
I8
ssg230
(dp1425
g1177
I8
sg1215
I4
sg1151
I12
sg1236
I4
sg1095
I4
sg227
I4
ssg301
(dp1426
g285
I12
ssg399
(dp1427
g1221
I12
sg396
I4
sg635
I4
sg925
I4
ssg302
(dp1428
g285
I2
ssg1108
(dp1429
g1215
I4
sg1103
I4
ssg585
(dp1430
g925
I16
sg583
I6
sg1292
I2
sVphysic
p1431
I2
sVearth science
p1432
I6
ssg210
(dp1433
g208
I4
sVmethodology
p1434
I2
sg1246
I2
ssg98
(dp1435
g285
I12
sg925
I20
sg91
I8
sg211
I4
ssg1295
(dp1436
g1292
I4
ssg169
(dp1437
g155
I2
ssg722
(dp1438
Vcommunication
p1439
I8
sVinformation system
p1440
I2
sVcomputer science
p1441
I4
ssg197
(dp1442
g699
I16
sg383
I12
sVsocial science
p1443
I4
sg873
I4
sg1061
I12
sVphysical science
p1444
I6
sg195
I4
sg415
I4
sg541
I2
sg763
I8
sg687
I4
sg442
I4
sVperformance study
p1445
I2
sg456
I8
sg1123
I4
sg497
I8
sg1125
I2
sg790
I8
sVlife science
p1446
I10
sg213
I6
sg221
I2
sg1170
I4
sg249
I2
sg271
I2
sg1181
I4
sg642
I4
sg1206
I2
sg623
I4
sg1151
I4
sg910
I10
sg887
I2
sg1246
I2
sg920
I4
sg1262
I8
sg1272
I4
sg1085
I4
sg1283
I4
sg1236
I4
sVmaterial science
p1447
I2
sg1026
I4
ssg962
(dp1448
g1151
I4
sg1140
I2
sg925
I4
ssg467
(dp1449
g456
I4
ssg236
(dp1450
g249
I2
sg775
I8
sg1262
I8
sg1194
I4
sg1236
I12
sVmaterial science
p1451
I2
sg227
I12
ssg824
(dp1452
Vengineering science
p1453
I4
sVbiomechanics
p1454
I2
sVscience
p1455
I8
sVdynamic
p1456
I2
sVbiophysics
p1457
I2
sVengineering
p1458
I2
sVquantum mechanic
p1459
I2
sVphysic
p1460
I46
sVphysical chemistry
p1461
I4
ssg1270
(dp1462
g1262
I4
ssg465
(dp1463
g607
I4
sg925
I8
sg980
I8
sg456
I8
sg1262
I4
ssg374
(dp1464
g372
I4
sg660
I4
ssg109
(dp1465
Vsocial science
p1466
I44
sVclassic
p1467
I2
sVstatistic
p1468
I2
sg746
I4
sg1083
I8
sg107
I4
sg415
I40
sg146
I2
sg155
I4
sg770
I2
sg456
I8
sg1103
I80
sg784
I4
sg1123
I4
sg497
I12
sg793
I12
sVphysic
p1469
I2
sg850
I4
sVfluid mechanic
p1470
I2
sg1001
I8
sg873
I12
sg566
I4
sg1175
I4
sg1181
I8
sg471
I4
sg607
I8
sg1215
I4
sg1225
I2
sg1232
I2
sg650
I24
sg988
I4
sg925
I76
sg663
I44
sg1272
I4
sg506
I4
sg335
I4
sg1281
I4
sg684
I4
sg689
I2
sg1292
I2
sg1307
I4
ssg964
(dp1471
g925
I8
ssg1028
(dp1472
g1026
I4
sg1103
I8
ssg1153
(dp1473
Vnumerical analysis
p1474
I2
sVfinance
p1475
I2
sVanalysis
p1476
I2
sg626
I4
sVmathematics
p1477
I6
sVphysic
p1478
I2
ssg993
(dp1479
g988
I4
sg1151
I4
ssg1049
(dp1480
g1047
I4
ssg721
(dp1481
g925
I12
sg1307
I4
sg715
I4
sg1103
I4
ssg612
(dp1482
g607
I4
ssg966
(dp1483
g925
I4
sg996
I2
sVenvironmental science
p1484
I2
ssg1112
(dp1485
Vbiochemistry
p1486
I2
sVscience
p1487
I2
sVanalysis
p1488
I2
ssg423
(dp1489
Vsocial science
p1490
I2
sg456
I16
sg415
I2
ssg193
(dp1491
g1037
I2
sg1170
I4
sg566
I4
sVsocial science
p1492
I2
sg988
I4
sg925
I4
sVquantum physic
p1493
I2
sg1262
I8
sg555
I4
sg190
I2
sg1140
I4
sVmechanic
p1494
I2
sg1151
I84
sg415
I2
sg256
I4
ssg303
(dp1495
Vsocial science
p1496
I20
sVclassic
p1497
I2
sg1075
I8
sg1115
I4
sg415
I20
sVethic
p1498
I2
sg456
I4
sg1103
I52
sg784
I4
sg1123
I4
sg793
I4
sg285
I4
sg1054
I8
sg607
I4
sg1225
I2
sg879
I4
sg650
I12
sg925
I40
sg663
I4
sg340
I4
sg689
I2
sg1307
I4
ssg970
(dp1499
g1110
I4
sg925
I8
sg1236
I4
sg1292
I8
sVphysic
p1500
I8
ssg259
(dp1501
g379
I2
sg256
I2
sg978
I4
sg1262
I2
sg1151
I6
sg1292
I2
ssg428
(dp1502
g442
I4
sVsocial science
p1503
I46
sg1103
I4
sg925
I12
sVbehavioural science
p1504
I2
sg1234
I2
sg415
I42
sg1026
I4
ssg165
(dp1505
g925
I4
sg155
I4
ssg168
(dp1506
g155
I16
sg650
I4
ssg100
(dp1507
g91
I2
sg1103
I2
sg925
I6
sg1181
I30
sg1262
I2
sg497
I4
sg1061
I2
sg793
I2
sg896
I4
sg285
I4
sg1221
I2
sg1089
I2
sg141
I2
sg415
I6
sg201
I2
ssg972
(dp1508
Vmemory
p1509
I2
sVnatural science
p1510
I34
sVecology
p1511
I4
sVchemistry
p1512
I2
sVsocial science
p1513
I4
sVhumanities
p1514
I2
sVscience
p1515
I246
sVphilosophy
p1516
I2
sg603
I6
sg135
I2
sVengineering
p1517
I6
sVinformation science
p1518
I2
sVgeophysics
p1519
I2
sVcomputer science
p1520
I2
sVmathematics
p1521
I4
sVbiology
p1522
I2
sVphysical science
p1523
I46
sVastronomy
p1524
I2
sVmaterial science
p1525
I2
sVearth science
p1526
I4
ssg276
(dp1527
g271
I4
sg925
I8
sVapply science
p1528
I4
ssg1138
(dp1529
g1136
I12
ssg1008
(dp1530
Vcivil engineering
p1531
I2
sg772
I2
sVmechanic
p1532
I2
ssg975
(dp1533
g925
I8
ssg844
(dp1534
Vscience
p1535
I2
sg723
I2
sVthermodynamics
p1536
I2
sVphysic
p1537
I8
sVphysical chemistry
p1538
I4
ssg668
(dp1539
g781
I8
sg663
I4
ssg659
(dp1540
g650
I2
sg988
I2
sg925
I2
sg978
I2
sg1061
I2
sg1140
I16
sg1151
I2
ssg731
(dp1541
g770
I12
sg729
I4
sg787
I2
sg1262
I24
sVstatistic
p1542
I12
sg863
I2
ssg895
(dp1543
Vgeophysics
p1544
I2
ssg435
(dp1545
g607
I8
sg442
I4
sg1103
I4
sg415
I4
sVsocial science
p1546
I4
ssg287
(dp1547
g285
I4
sg566
I4
sg1292
I4
sVphysic
p1548
I4
ssg499
(dp1549
g715
I4
sg497
I4
ssg94
(dp1550
g91
I4
sg925
I28
sVmedicine
p1551
I2
sVastronomy
p1552
I2
sVhumanities
p1553
I2
ssg106
(dp1554
g104
I4
ssg489
(dp1555
g925
I12
sg566
I4
sg487
I4
ssg291
(dp1556
g285
I12
ssg275
(dp1557
g271
I2
sg699
I4
sVapply science
p1558
I2
ssg1184
(dp1559
Vmedical science
p1560
I2
sVsocial science
p1561
I6
sVhumanities
p1562
I2
sVscience
p1563
I6
sVphilosophy
p1564
I30
sVanalysis
p1565
I2
sVreligion
p1566
I4
sVengineering
p1567
I2
sVmusic
p1568
I2
sVchemical engineering
p1569
I4
sVmedicine
p1570
I4
sVneuroscience
p1571
I2
sVpathology
p1572
I2
sVgeography
p1573
I2
sVbiomedical
p1574
I2
ssg224
(dp1575
Vperformance study
p1576
I2
sVsocial science
p1577
I6
sg650
I16
sg1103
I8
sg925
I8
sg607
I4
sg1075
I8
sg715
I4
sg415
I6
sg221
I2
ssg1201
(dp1578
g1197
I4
sg1221
I4
ssg977
(dp1579
g925
I4
sg1061
I4
ssg932
(dp1580
g925
I4
ssg766
(dp1581
g763
I4
ssg1032
(dp1582
g1026
I4
ssg347
(dp1583
g1037
I2
sg345
I2
sg1024
I2
ssg426
(dp1584
g925
I8
sg663
I8
sg415
I4
sVsocial science
p1585
I4
ssg765
(dp1586
g763
I4
ssg750
(dp1587
g746
I4
ssg364
(dp1588
g362
I4
sg746
I4
sg566
I12
sg925
I4
sg763
I4
ssg344
(dp1589
g1037
I6
sg650
I64
sg1103
I4
sg715
I8
sg342
I4
sVmechanic
p1590
I6
ssg1163
(dp1591
g1151
I12
ssg490
(dp1592
g487
I4
ssg97
(dp1593
g91
I4
sg249
I2
sg1061
I4
sg1236
I4
sVmaterial science
p1594
I2
ssg847
(dp1595
Vphysic
p1596
I2
ssg1039
(dp1597
g1037
I2
sVmechanic
p1598
I2
ssg20
(dp1599
Vmethodology
p1600
I2
sg1246
I2
sg1331
I4
sg1262
I4
sg141
I4
ssg1217
(dp1601
g1215
I4
ssg912
(dp1602
g910
I4
sg1181
I2
ssg245
(dp1603
Vengineering science
p1604
I2
sg1003
I2
ssg789
(dp1605
g925
I2
sg1092
I2
sg1292
I10
sg787
I2
ssg32
(dp1606
g18
I2
ssg536
(dp1607
Vscience
p1608
I4
sVelectronics
p1609
I2
sVcomputer science
p1610
I2
sVlanguage
p1611
I2
ssg463
(dp1612
g456
I12
ssg1157
(dp1613
g1151
I4
ssg166
(dp1614
g155
I4
sg650
I4
ssg99
(dp1615
g91
I4
sg904
I8
sg910
I10
sg1136
I8
sVsocial science
p1616
I6
sg497
I4
sg271
I2
sg925
I148
sg277
I4
sg456
I4
sg487
I8
sg1262
I4
sg211
I4
sg1061
I8
sg396
I4
sg1281
I4
sVlife science
p1617
I10
sg586
I4
sg699
I4
sg415
I6
sVapply science
p1618
I2
ssg220
(dp1619
g868
I2
sg249
I2
sg679
I2
sg271
I2
sg925
I12
sg349
I4
sg1194
I4
sg923
I2
sg1061
I4
sg857
I4
sg213
I2
sVphysical science
p1620
I2
sg633
I2
sVmaterial science
p1621
I2
sVapply science
p1622
I2
ssg820
(dp1623
Vscience
p1624
I2
sVphysic
p1625
I2
ssg427
(dp1626
g415
I2
sVsocial science
p1627
I2
ssg388
(dp1628
g1037
I10
sg566
I4
sg383
I2
sg1061
I2
sg1151
I2
sg1236
I2
sg1167
I2
ssg1159
(dp1629
Vmathematics
p1630
I4
sVcomputer science
p1631
I2
sVscience
p1632
I4
ssg431
(dp1633
g607
I4
sg925
I12
sg415
I2
sVsocial science
p1634
I2
ssg159
(dp1635
g155
I20
sVbehavioural science
p1636
I2
sg456
I12
sg918
I4
sg471
I8
sg390
I4
sg715
I20
sg1181
I8
sg563
I2
sg1140
I4
sg1075
I4
sg855
I4
sg1103
I4
sg1234
I2
sg1085
I4
sg1026
I4
sg1258
I2
sg906
I4
sg1172
I4
ssg950
(dp1637
g1292
I2
sg1262
I8
sg925
I16
sg1151
I104
sg1236
I4
sg1095
I4
sVphysic
p1638
I2
ssg173
(dp1639
g171
I2
sg375
I2
ssg783
(dp1640
g781
I8
ssg581
(dp1641
g566
I4
ssg1139
(dp1642
g1136
I4
ssg618
(dp1643
Velectrical engineering
p1644
I2
sVmagnetism
p1645
I4
sVelectronics
p1646
I2
sVphysic
p1647
I2
sVscience
p1648
I2
ssg922
(dp1649
g925
I4
sg1292
I2
sVphysic
p1650
I2
sg920
I4
ssg79
(dp1651
g566
I24
sg1136
I8
sg925
I28
sg699
I8
sg497
I4
sg77
I4
sg362
I4
sg213
I2
sVphysical science
p1652
I2
ssg691
(dp1653
g925
I24
sg689
I2
sVclassic
p1654
I2
ssg279
(dp1655
g379
I4
sg770
I6
sg988
I4
sg925
I8
sg277
I4
sg80
I2
sg566
I4
sg1262
I8
sVstatistic
p1656
I6
sVlife science
p1657
I4
sg1151
I24
sg413
I2
sg1307
I4
ssg625
(dp1658
g687
I4
sg910
I6
sg1136
I4
sg925
I8
sg1262
I4
sVmethodology
p1659
I2
sg623
I4
sVlife science
p1660
I6
sg1246
I2
ssg889
(dp1661
g925
I4
sg887
I2
sVinformation system
p1662
I2
ssg445
(dp1663
g442
I4
ssg161
(dp1664
g155
I12
sg699
I4
sg330
I8
sg650
I12
ssg1030
(dp1665
g1026
I8
ssg953
(dp1666
g925
I4
ssg248
(dp1667
g242
I2
sg1292
I4
ssg913
(dp1668
Vlife science
p1669
I2
sg910
I2
ssg174
(dp1670
g1100
I16
sg566
I4
sg171
I2
sg711
I4
sg925
I20
sg277
I4
sg663
I4
sg985
I4
sg732
I4
sg1262
I4
sg285
I4
sg1167
I4
sVtherapeutic
p1671
I2
ssg1187
(dp1672
g1181
I4
ssg387
(dp1673
g790
I4
sg383
I4
ssg304
(dp1674
g1110
I4
sg285
I4
sg566
I4
sg1219
I4
sg1221
I4
ssg1113
(dp1675
g1110
I4
ssg75
(dp1676
g1170
I4
sg155
I12
sg330
I4
sg650
I36
sg1181
I4
sg1140
I4
sg1026
I4
sg72
I4
ssg744
(dp1677
g770
I4
sg1177
I4
sg988
I8
sVapply statistic
p1678
I2
sg742
I2
sVstatistic
p1679
I4
sg1151
I20
ssg56
(dp1680
g699
I12
sg316
I2
sg1331
I4
sg925
I40
sg583
I2
sg881
I2
sg102
I4
sVphysical science
p1681
I2
sg213
I2
sg1292
I2
sVphysic
p1682
I2
sVearth science
p1683
I2
ssg1162
(dp1684
g1151
I4
ssg1120
(dp1685
g1117
I4
ssg1145
(dp1686
g1140
I2
ssg578
(dp1687
g566
I4
sg875
I4
sg925
I4
sg910
I2
sVlife science
p1688
I2
sg635
I8
ssg965
(dp1689
g925
I4
sg1236
I4
sg1262
I4
ssg290
(dp1690
g285
I4
ssg1029
(dp1691
g1026
I4
ssg264
(dp1692
g262
I20
ssg419
(dp1693
g925
I4
sg415
I2
sVsocial science
p1694
I2
ssg217
(dp1695
g1050
I4
sg925
I12
sg607
I4
sg213
I2
sVphysical science
p1696
I2
sg1227
I8
sg1292
I6
sVphysic
p1697
I6
sg1307
I4
ssg738
(dp1698
g736
I4
ssg577
(dp1699
g566
I4
sg1179
I8
sg1262
I4
sg1061
I12
sg1227
I4
sg1292
I2
sVphysic
p1700
I2
ssg1185
(dp1701
g1181
I2
ssg987
(dp1702
g985
I4
ssg329
(dp1703
g1177
I4
sg988
I4
sg925
I4
sg663
I4
sVphysic
p1704
I2
sg1657
I4
sg1151
I68
sg1292
I2
sg327
I4
ssg968
(dp1705
g925
I4
ssg199
(dp1706
Vperformance study
p1707
I2
sg1103
I4
sg923
I2
sg715
I4
sg793
I4
sVcircuit
p1708
I2
sg195
I4
sg221
I2
ssg991
(dp1709
g988
I8
sg1151
I8
sg1177
I4
ssg947
(dp1710
g925
I2
ssg306
(dp1711
g763
I4
sg904
I4
sg566
I4
sg1123
I4
sg711
I4
sg925
I32
sg607
I4
sg746
I4
sg285
I4
sg1221
I8
sg356
I4
ssg1269
(dp1712
Vscience
p1713
I2
sVeconomics
p1714
I2
sVanalysis
p1715
I4
ssg974
(dp1716
g925
I4
sg1061
I4
sg1140
I20
ssg436
(dp1717
Vsocial science
p1718
I2
sg1103
I12
sg925
I36
sg607
I16
sg415
I2
sg1026
I8
ssg126
(dp1719
g850
I2
sg249
I2
sg699
I34
sg383
I4
sg324
I6
sg1103
I2
sg925
I246
sg583
I4
sg566
I2
sg132
I2
sg1151
I4
sg1061
I6
sg790
I2
sg890
I2
sg1140
I2
sg213
I34
sVphysical science
p1720
I12
sg1227
I2
sg415
I4
sg1181
I2
sg1236
I2
ssg417
(dp1721
g1085
I6
sg1262
I2
sg415
I2
sg1215
I2
ssg163
(dp1722
g1170
I4
sg155
I12
sg330
I20
sg650
I56
sg715
I4
sg850
I8
ssg540
(dp1723
g925
I2
sg534
I2
ssg420
(dp1724
g699
I4
sg442
I4
sVsocial science
p1725
I14
sg988
I4
sg925
I24
sg910
I2
sg1123
I4
sVlife science
p1726
I2
sg1227
I4
sg415
I10
sg1026
I4
ssg298
(dp1727
g285
I4
sVlife science
p1728
I2
sg910
I2
sg487
I4
ssg810
(dp1729
Vscience
p1730
I2
sVcosmology
p1731
I2
sVphysic
p1732
I10
sVquantum mechanic
p1733
I2
ssg646
(dp1734
g1110
I4
sg873
I4
sg693
I2
sg684
I4
sg644
I2
ssg1087
(dp1735
Vpolitics
p1736
I6
sVanalysis
p1737
I2
sVsocial science
p1738
I2
sVpolitical science
p1739
I2
ssg933
(dp1740
g925
I4
sg1236
I4
ssg232
(dp1741
g1236
I4
sg227
I4
ssg300
(dp1742
g904
I4
sg925
I16
sg1061
I4
sg285
I8
sg684
I4
sg1236
I8
ssg385
(dp1743
g910
I2
sg383
I4
sVsocial science
p1744
I2
sg1103
I4
sg925
I12
sVenvironmental science
p1745
I4
sg996
I4
sg899
I4
sVlife science
p1746
I2
sg684
I4
sg415
I2
ssg1243
(dp1747
g1236
I4
ssg935
(dp1748
g925
I6
ssg1119
(dp1749
g1117
I4
ssg355
(dp1750
Vcomputer engineering
p1751
I2
ssg657
(dp1752
g650
I4
sg908
I4
ssg1040
(dp1753
g1037
I2
sVmechanic
p1754
I2
ssg537
(dp1755
g534
I4
ssg310
(dp1756
g285
I8
sg566
I4
sg487
I12
ssg893
(dp1757
g890
I2
ssg323
(dp1758
g320
I4
sg1181
I12
sg1075
I4
ssg632
(dp1759
g630
I4
ssg1016
(dp1760
g1014
I2
ssg569
(dp1761
g566
I4
ssg292
(dp1762
g285
I28
sVlife science
p1763
I2
sg910
I2
sg899
I4
ssg748
(dp1764
g746
I4
ssg654
(dp1765
g1140
I6
sg650
I2
ssg255
(dp1766
Vethic
p1767
I2
sg253
I4
sg1136
I8
sg925
I8
sg1283
I4
sg1225
I2
ssg238
(dp1768
g925
I4
sg265
I4
sg699
I4
sg1236
I8
sg227
I4
ssg1099
(dp1769
g1181
I12
sg1097
I4
ssg670
(dp1770
g663
I12
sg1292
I2
sVphysic
p1771
I2
ssg370
(dp1772
g566
I4
sg367
I4
sg1117
I4
ssg949
(dp1773
g925
I4
sg1136
I8
ssg503
(dp1774
g497
I4
ssg74
(dp1775
g155
I8
sg1181
I2
sg330
I2
sg72
I2
sg650
I6
ssg1158
(dp1776
g1151
I4
ssg560
(dp1777
g1170
I4
sg1262
I8
sg1140
I4
sg1151
I24
sg1292
I2
sg555
I4
sVphysic
p1778
I2
ssg145
(dp1779
g925
I4
sg277
I4
sg383
I4
sg1026
I4
sg141
I4
ssg641
(dp1780
g639
I4
sg1100
I4
sg1262
I8
ssg708
(dp1781
g699
I4
sVenvironmental science
p1782
I2
sg925
I12
sg1061
I4
sg996
I2
sg1256
I4
ssg121
(dp1783
g925
I4
sg1262
I4
sg1204
I2
sg998
I2
sg1720
I4
sg1236
I4
sg1292
I18
sVphysic
p1784
I18
sg857
I4
ssg666
(dp1785
g1123
I8
sg663
I4
ssg315
(dp1786
g566
I4
sVenvironmental science
p1787
I4
sg925
I16
sg910
I2
sVlife science
p1788
I2
sg996
I4
sg285
I8
ssg418
(dp1789
g904
I4
sg1246
I2
sVsocial science
p1790
I2
sg925
I8
sg485
I4
sg607
I12
sVmethodology
p1791
I2
sg415
I2
sg1279
I4
ssg358
(dp1792
Vmanufacture
p1793
I2
sg925
I4
sg1061
I12
sg1140
I4
sg356
I4
sg633
I2
sg860
I4
ssg269
(dp1794
g265
I8
ssg720
(dp1795
g715
I4
sg925
I4
ssg280
(dp1796
g277
I4
ssg311
(dp1797
g285
I4
sg1100
I4
sg623
I4
ssg305
(dp1798
g988
I4
sg925
I4
sg1181
I44
sg285
I4
sg1151
I4
sg320
I4
ssg268
(dp1799
g316
I2
sVsocial science
p1800
I2
sg265
I4
sg925
I24
sg583
I2
sVatmospheric science
p1801
I2
sg1061
I4
sg1292
I2
sg415
I2
sVphysic
p1802
I2
sVearth science
p1803
I2
ssg1065
(dp1804
g1061
I8
ssg1240
(dp1805
Vchemistry
p1806
I2
ssg610
(dp1807
g607
I4
ssg821
(dp1808
Vscience
p1809
I2
sVquantum physic
p1810
I2
sVchemistry
p1811
I2
sVphysic
p1812
I16
sVphysical chemistry
p1813
I2
ssg1186
(dp1814
g1181
I32
ssg225
(dp1815
Vperformance study
p1816
I2
sg221
I2
sg1103
I4
ssg295
(dp1817
g566
I28
sg1236
I4
sg1136
I12
sg1219
I4
sg925
I12
sg910
I4
sg746
I4
sg285
I4
sVlife science
p1818
I4
sg1283
I8
sg699
I4
sg367
I4
ssg717
(dp1819
g715
I8
sg887
I2
sg1140
I4
ssg293
(dp1820
g285
I8
ssg1035
(dp1821
g1026
I4
ssg992
(dp1822
g988
I8
sg1151
I44
sg1095
I4
ssg469
(dp1823
g497
I4
sg456
I4
sg650
I4
ssg494
(dp1824
g487
I4
ssg1142
(dp1825
Vcomputer science
p1826
I2
ssg797
(dp1827
g793
I4
ssg1200
(dp1828
g1197
I4
ssg9
(dp1829
g155
I4
sg6
I4
sg904
I4
sg925
I16
sg899
I4
sg566
I4
sg877
I4
ssg705
(dp1830
g763
I4
sg699
I4
sg790
I4
ssg182
(dp1831
g180
I2
sg588
I2
sg925
I4
ssg318
(dp1832
g925
I4
sVatmospheric science
p1833
I2
sg316
I2
ssg576
(dp1834
g566
I4
sg875
I4
ssg322
(dp1835
g925
I12
sg1181
I76
sg320
I4
sg1151
I4
ssg226
(dp1836
g873
I16
sVperformance study
p1837
I2
sg711
I4
sg650
I4
sg793
I12
sg1236
I8
sg1097
I4
sg221
I2
ssg969
(dp1838
Vinstrumentation
p1839
I2
sVphotonics
p1840
I2
sVscience
p1841
I18
sVsystematics
p1842
I2
sVmagnetism
p1843
I2
sVcommunication
p1844
I2
sg479
I2
sVelectrical engineering
p1845
I2
sVastronomy
p1846
I2
sVphysic
p1847
I12
sVelectromagnetism
p1848
I2
ssg1296
(dp1849
g1292
I10
sVphysic
p1850
I10
ssg665
(dp1851
g925
I2
sg663
I2
sg1262
I4
ssg1297
(dp1852
g1292
I2
ssg131
(dp1853
g1037
I2
sg379
I8
sVsocial science
p1854
I4
sg129
I4
sg715
I8
sg1052
I4
sg1059
I4
sg1061
I16
sg736
I4
sVstatistic
p1855
I4
sg1085
I4
sg413
I2
sg1095
I4
sg415
I4
sVinformation system
p1856
I2
sVapply science
p1857
I2
sVethic
p1858
I4
sg687
I16
sg770
I4
sg1136
I12
sg456
I8
sg474
I4
sg477
I4
sg186
I8
sVmethodology
p1859
I14
sg1274
I4
sg793
I4
sg1140
I20
sg853
I8
sg1151
I48
sg437
I2
sg555
I8
sVmechanic
p1860
I2
sg875
I4
sg1100
I8
sg155
I4
sVdynamic
p1861
I2
sg1181
I4
sg879
I4
sg285
I4
sg887
I2
sValgorithm
p1862
I2
sg1225
I4
sVphysic
p1863
I6
sg642
I4
sg1164
I2
sg1246
I14
sg650
I8
sg918
I12
sg271
I2
sg925
I36
sg663
I20
sg734
I4
sg985
I4
sg923
I2
sg506
I8
sg1276
I2
sVcircuit
p1864
I2
sg360
I4
sg1292
I6
sg779
I4
ssg433
(dp1865
g1246
I2
sVsocial science
p1866
I4
sg1103
I8
sg925
I16
sg497
I12
sVmethodology
p1867
I2
sg415
I4
ssg942
(dp1868
g925
I4
ssg470
(dp1869
g902
I4
sg456
I4
ssg134
(dp1870
g699
I68
sg383
I4
sVsocial science
p1871
I2
sg713
I4
sVdynamic
p1872
I2
sg1061
I4
sVphysical science
p1873
I40
sg413
I2
sg132
I2
sVapply science
p1874
I8
sg1100
I4
sVnetwork
p1875
I2
sg1103
I4
sg1110
I4
sg415
I2
sg497
I4
sg790
I4
sg201
I4
sg285
I4
sg1151
I8
sg227
I4
sg1170
I4
sg566
I12
sg271
I8
sg213
I20
sg1221
I4
sVphysic
p1876
I4
sg925
I348
sg1262
I4
sg1022
I4
sg1292
I4
sg1026
I4
ssg1077
(dp1877
g1075
I8
ssg1191
(dp1878
g1181
I28
ssg927
(dp1879
g925
I4
ssg491
(dp1880
g697
I8
sg487
I16
ssg751
(dp1881
g746
I8
sg1262
I4
ssg928
(dp1882
g925
I4
ssg945
(dp1883
Vscience
p1884
I2
sVapply science
p1885
I1
ssg34
(dp1886
g1331
I4
ssg297
(dp1887
g285
I4
sg925
I4
sg1262
I4
sg1026
I8
ssg235
(dp1888
g242
I4
sg699
I4
sg925
I12
sg1194
I4
sg1236
I8
sg1292
I18
sVphysic
p1889
I18
sg227
I8
ssg931
(dp1890
g925
I4
sg1292
I6
ssg273
(dp1891
g271
I4
sg925
I20
sg790
I4
sg1292
I2
sVphysic
p1892
I2
sVapply science
p1893
I4
ssg704
(dp1894
g925
I4
sg699
I2
sg1061
I2
ssg351
(dp1895
g1151
I4
sg1061
I4
sg349
I4
ssg575
(dp1896
Vlife science
p1897
I2
sg925
I20
sg566
I4
sg910
I2
ssg274
(dp1898
g271
I1
sg925
I2
ssg261
(dp1899
g256
I4
ssg1033
(dp1900
g1026
I4
ssg309
(dp1901
g566
I16
sg711
I4
sg1110
I4
sg699
I4
sg487
I4
sg285
I8
sg1089
I4
ssg841
(dp1902
Vphysic
p1903
I4
ssg66
(dp1904
g781
I4
sg1136
I4
sg1331
I16
sg415
I4
ssg492
(dp1905
g925
I4
sg487
I12
ssg582
(dp1906
Vtoxicology
p1907
I2
sVbiology
p1908
I2
sVscience
p1909
I2
ssg371
(dp1910
g697
I4
sVsocial science
p1911
I6
sg715
I4
sg1061
I4
sg996
I6
sg746
I4
sg1081
I4
sg415
I6
sg711
I8
sg763
I4
sg630
I4
sg1103
I4
sg487
I4
sg1123
I12
sg497
I4
sg790
I4
sg877
I4
sVlife science
p1912
I2
sg566
I44
sVenvironmental science
p1913
I6
sg1181
I8
sg623
I4
sg1136
I4
sg910
I2
sg925
I84
sg367
I4
ssg1056
(dp1914
g1054
I4
ssg609
(dp1915
g607
I8
ssg90
(dp1916
g1197
I8
sg925
I4
sg1089
I4
sg1262
I4
sg87
I4
ssg1155
(dp1917
Vbiology
p1918
I8
sVsociology
p1919
I2
sVsocial science
p1920
I6
sVgeometry
p1921
I2
sVscience
p1922
I8
sVnatural science
p1923
I2
sVanalysis
p1924
I16
sVreligion
p1925
I2
sVmathematics
p1926
I18
sVpsychology
p1927
I16
ssg1088
(dp1928
g1085
I4
ssg667
(dp1929
g663
I20
sg1262
I4
ssg424
(dp1930
Vsocial science
p1931
I2
sg456
I8
sg415
I2
ssg429
(dp1932
g442
I4
sg415
I2
sVsocial science
p1933
I2
ssg284
(dp1934
Vsocial science
p1935
I78
sg1103
I12
sg925
I72
sg663
I4
sg282
I4
sg497
I4
sg415
I62
sg1001
I8
ssg496
(dp1936
g763
I4
sg566
I56
sg916
I4
sg711
I8
sg925
I32
sg910
I10
sg487
I4
sg746
I4
sVmethodology
p1937
I2
sg623
I4
sVlife science
p1938
I10
sg1246
I2
sg699
I4
sg637
I8
ssg466
(dp1939
g1061
I4
sg1075
I4
sg456
I4
ssg422
(dp1940
g925
I8
sg1103
I4
sg415
I6
sVsocial science
p1941
I6
ssg943
(dp1942
g925
I4
ssg200
(dp1943
Vethic
p1944
I2
sg442
I4
sg1103
I8
sg1181
I8
sg195
I4
sg1085
I4
sg1225
I2
sg1292
I2
sVphysic
p1945
I2
sg1026
I4
ssg493
(dp1946
g487
I8
ssg1031
(dp1947
g1026
I4
ssg954
(dp1948
g925
I8
ssg1114
(dp1949
g1110
I4
sg1219
I4
ssg703
(dp1950
g925
I14
sg699
I4
ssg1144
(dp1951
Vcomputer science
p1952
I6
sVlanguage
p1953
I2
ssg10
(dp1954
g699
I76
sg383
I4
sVsocial science
p1955
I6
sg175
I4
sg6
I4
sg1061
I4
sg996
I6
sg746
I4
sVphysical science
p1956
I6
sg415
I6
sVapply science
p1957
I2
sg439
I4
sg1100
I8
sg1219
I4
sg775
I4
sg1103
I4
sg487
I4
sg790
I4
sg201
I4
sg285
I4
sg213
I6
sVearth science
p1958
I2
sg1170
I4
sVenvironmental science
p1959
I6
sg271
I2
sg583
I2
sg1194
I8
sVlife science
p1960
I22
sg1151
I4
sg282
I4
sg635
I4
sVphysic
p1961
I2
sg1234
I2
sg910
I22
sg650
I4
sg333
I4
sg988
I4
sg925
I348
sVbehavioural science
p1962
I2
sg1292
I2
sg1307
I4
ssg827
(dp1963
Vcondensed matter physic
p1964
I1
sVphysic
p1965
I2
ssg8
(dp1966
g6
I4
sg1136
I4
sVsocial science
p1967
I4
sg777
I4
sg925
I8
sg277
I4
sg899
I4
sg566
I4
sg1281
I8
sg613
I4
sg877
I4
sg285
I8
sg415
I4
ssg914
(dp1968
Vlife science
p1969
I2
sg910
I2
ssg395
(dp1970
g925
I4
sg1061
I2
sg1078
I2
sg392
I4
sg644
I2
ssg1241
(dp1971
g1236
I28
ssVo
(dp1972
Vmusic
p1973
I2
ssg1067
(dp1974
g1179
I8
sg1292
I2
sg1061
I8
sVphysic
p1975
I2
ssg798
(dp1976
g793
I4
sg1103
I4
ssg799
(dp1977
g793
I2
ssg570
(dp1978
g566
I4
ssg270
(dp1979
g1236
I4
sg699
I4
sg790
I4
sg1022
I4
sg265
I4
ssg13
(dp1980
g873
I4
sg566
I4
sg11
I2
sVnetwork
p1981
I4
sg650
I4
sg1103
I8
sg925
I4
sVdynamic
p1982
I2
sg1061
I4
sg1262
I4
sg415
I4
sg456
I4
sg349
I4
sg506
I4
sg413
I2
sg534
I8
sg141
I4
sg1292
I2
sg132
I2
sVphysic
p1983
I2
sVsocial science
p1984
I4
ssg240
(dp1985
g925
I2
sg227
I2
ssg459
(dp1986
g1221
I2
sg1140
I2
sg456
I2
sg860
I2
sg471
I6
ssg179
(dp1987
g566
I12
sg456
I24
sg177
I4
sg988
I4
sg925
I24
sg910
I2
sg1075
I12
sg715
I4
sVlife science
p1988
I2
ssg501
(dp1989
g925
I16
sg566
I24
sg790
I4
sg699
I8
sg497
I4
ssg1239
(dp1990
g1236
I2
ssg557
(dp1991
g663
I20
sg555
I4
ssg572
(dp1992
g566
I4
ssg31
(dp1993
g566
I8
sg442
I2
sg456
I16
sg988
I2
sg925
I8
sg699
I2
sg1262
I16
sg497
I2
sg1151
I18
sg415
I4
sg1331
I2
ssg653
(dp1994
g925
I2
sg1140
I2
sg650
I2
ssg1199
(dp1995
g1197
I4
ssg580
(dp1996
g1197
I4
sg925
I4
sg566
I20
sg1136
I8
ssg952
(dp1997
Vscience
p1998
I6
ssg678
(dp1999
g676
I2
sg925
I20
sg1092
I8
sg1212
I2
sg1050
I8
sg1227
I4
sg1292
I2
sVphysic
p2000
I2
ssg185
(dp2001
g1037
I8
sg621
I8
sg337
I2
sVmechanic
p2002
I8
sVfluid mechanic
p2003
I2
sg183
I2
sg1232
I2
ssg430
(dp2004
g415
I2
sVsocial science
p2005
I2
ssg955
(dp2006
g925
I4
ssg354
(dp2007
g925
I4
sg349
I4
sg1061
I4
sg1075
I12
sg1140
I16
sg715
I4
ssg394
(dp2008
Vscience
p2009
I4
sVengineering
p2010
I2
sVergonomics
p2011
I2
sVmechanical engineering
p2012
I4
sVdynamical system
p2013
I2
ssg915
(dp2014
Vlife science
p2015
I2
sg925
I4
sg1061
I4
sg1236
I4
sg910
I2
ssg192
(dp2016
Vquantum physic
p2017
I4
sg1100
I4
sg190
I4
sg1292
I2
sVphysic
p2018
I2
ssg958
(dp2019
g1110
I2
sg925
I2
sg1262
I2
ssg960
(dp2020
g925
I2
ssg89
(dp2021
g1197
I4
sg87
I4
ssg326
(dp2022
g1292
I2
sg324
I1
ssg538
(dp2023
g1014
I2
sg615
I4
sg1292
I2
sg534
I2
sg925
I2
ssg568
(dp2024
g566
I8
ssg458
(dp2025
g715
I4
sg1075
I4
sg456
I4
ssg369
(dp2026
g630
I4
sg566
I16
sg367
I4
sg623
I4
sg925
I4
ssg319
(dp2027
g925
I4
sVatmospheric science
p2028
I2
sg316
I2
ssg65
(dp2029
g1331
I2
ssg313
(dp2030
g285
I12
sg1221
I12
sg356
I4
sg365
I4
ssg1073
(dp2031
g1061
I4
ssg127
(dp2032
g110
I2
sVengineering
p2033
I2
ssg995
(dp2034
g988
I4
sg1151
I28
sg1202
I4
sg1262
I4
ssg170
(dp2035
Vlinguistics
p2036
I2
ssg231
(dp2037
g242
I4
sg925
I8
sg787
I2
sg1061
I2
sg1194
I2
sg413
I2
sg739
I2
sg1292
I46
sg227
I4
ssg1106
(dp2038
Vmusic
p2039
I4
sVhumanities
p2040
I4
ssg14
(dp2041
g699
I24
sg383
I4
sg1050
I4
sVphysical science
p2042
I4
sVapply science
p2043
I6
sg11
I2
sVnetwork
p2044
I2
sVfluid mechanic
p2045
I2
sg487
I4
sg1121
I4
sg793
I4
sVlife science
p2046
I2
sg213
I4
sg534
I4
sVmanufacture
p2047
I2
sg271
I6
sg285
I4
sg633
I2
sg1232
I2
sg910
I2
sg925
I96
sg985
I4
sg345
I4
sg1283
I4
ssg17
(dp2048
g504
I4
sg15
I2
sVsocial science
p2049
I10
sg1061
I4
sg195
I4
sg752
I4
sVethic
p2050
I2
sg442
I4
sg456
I4
sg1103
I4
sg415
I10
sg497
I20
sg205
I2
sg1175
I4
sg1181
I4
sg1215
I12
sg1225
I2
sVphysic
p2051
I2
sg925
I12
sg1262
I4
sg506
I8
sg1292
I2
sg1026
I4
ssg461
(dp2052
g497
I4
sg561
I4
sg902
I4
sg456
I12
sg1103
I4
ssg233
(dp2053
g227
I4
ssg901
(dp2054
g899
I4
ssg421
(dp2055
g415
I4
sVsocial science
p2056
I4
ssg95
(dp2057
g91
I4
sg910
I12
sVphysical science
p2058
I2
sg1219
I4
sg591
I4
sg925
I44
sg566
I20
sg1151
I4
sg201
I4
sg213
I2
sVlife science
p2059
I12
sg1283
I8
sg699
I4
sg1236
I24
sg875
I4
sg711
I4
ssg308
(dp2060
g285
I2
sg925
I16
sg1227
I2
sg1103
I2
ssg260
(dp2061
g925
I4
sg256
I4
ssg218
(dp2062
g1136
I4
sg650
I4
sg1103
I4
sg271
I2
sg925
I32
sg1151
I16
sg1075
I4
sg213
I2
sVphysical science
p2063
I2
sVapply science
p2064
I2
ssg219
(dp2065
g699
I28
sVsocial science
p2066
I4
sg650
I4
sg1103
I8
sg925
I124
sg566
I8
sg335
I4
sg282
I4
sg497
I4
sg1061
I8
sg365
I4
sg896
I4
sg213
I8
sVphysical science
p2067
I8
sg1292
I4
sg415
I4
sVphysic
p2068
I4
sg1140
I4
ssg702
(dp2069
g925
I4
sg699
I4
ssg381
(dp2070
g379
I4
sg650
I4
sg1177
I4
sg925
I24
sg1262
I8
sg1151
I28
ssg495
(dp2071
g487
I8
ssg892
(dp2072
g1292
I2
sg890
I4
sVphysic
p2073
I2
ssg941
(dp2074
g925
I2
sg1292
I2
ssg216
(dp2075
g1050
I4
sg699
I24
sg650
I4
sg925
I176
sg583
I2
sg1092
I4
sg1151
I12
sg213
I18
sVphysical science
p2076
I18
sg1292
I8
sVphysic
p2077
I8
sVearth science
p2078
I2
ssg204
(dp2079
Vsocial science
p2080
I68
sg1061
I8
sg1075
I8
sVstatistic
p2081
I2
sg415
I52
sVethic
p2082
I2
sg770
I2
sg1103
I16
sVmethodology
p2083
I4
sg201
I4
sg285
I12
sg1001
I4
sg566
I4
sg1181
I8
sg1221
I4
sg1225
I2
sVphysic
p2084
I2
sg1246
I4
sg650
I12
sg925
I136
sg663
I4
sg1262
I4
sg1292
I2
ssg973
(dp2085
Vscience
p2086
I4
sVnatural science
p2087
I2
sVengineering
p2088
I2
ssg1149
(dp2089
Vlanguage
p2090
I2
sVgeometry
p2091
I2
sVscience
p2092
I2
sVengineering
p2093
I2
sVcomputer science
p2094
I16
sVapply mathematics
p2095
I2
sVmathematics
p2096
I2
ssg251
(dp2097
g925
I8
sg1292
I2
sVmaterial science
p2098
I2
sVphysic
p2099
I2
sg249
I2
ssg312
(dp2100
g285
I4
ssg307
(dp2101
g456
I8
sg1103
I4
sg285
I24
sg1221
I12
sg1026
I4
sg415
I6
sVsocial science
p2102
I6
ssg434
(dp2103
g910
I4
sg711
I4
sg925
I8
sg487
I8
sg896
I4
sVlife science
p2104
I4
sg415
I2
sVsocial science
p2105
I2
ssg669
(dp2106
g781
I4
sg663
I4
sss.